
keyboard.exe:     file format pei-i386

Disassembly of section .text:

00401000 <___gxx_personality_sj0>:
                      _Unwind_Action actions,
                      _Unwind_Exception_Class exception_class,
                      struct _Unwind_Exception *ue_header,
                      struct _Unwind_Context *context)
{
  401000:	55                   	push   %ebp
  401001:	89 e5                	mov    %esp,%ebp
  401003:	83 ec 08             	sub    $0x8,%esp
	printf("ok\n");
  401006:	c7 04 24 00 70 40 00 	movl   $0x407000,(%esp)
  40100d:	e8 9e 1c 00 00       	call   402cb0 <_printf>
	return _URC_OK;
  401012:	b8 00 00 00 00       	mov    $0x0,%eax
}
  401017:	c9                   	leave  
  401018:	c3                   	ret    
  401019:	90                   	nop    

0040101a <__Unwind_SjLj_Register>:

extern "C" void _Unwind_SjLj_Register()
{
  40101a:	55                   	push   %ebp
  40101b:	89 e5                	mov    %esp,%ebp
}
  40101d:	5d                   	pop    %ebp
  40101e:	c3                   	ret    
  40101f:	90                   	nop    

00401020 <__Unwind_SjLj_Resume>:

extern "C" void _Unwind_SjLj_Resume()
{
  401020:	55                   	push   %ebp
  401021:	89 e5                	mov    %esp,%ebp
}
  401023:	5d                   	pop    %ebp
  401024:	c3                   	ret    
  401025:	90                   	nop    

00401026 <__Unwind_SjLj_Unregister>:

extern "C" void _Unwind_SjLj_Unregister()
{
  401026:	55                   	push   %ebp
  401027:	89 e5                	mov    %esp,%ebp
}
  401029:	5d                   	pop    %ebp
  40102a:	c3                   	ret    
  40102b:	90                   	nop    
  40102c:	90                   	nop    
  40102d:	90                   	nop    
  40102e:	90                   	nop    
  40102f:	90                   	nop    

00401030 <_atexit>:
  401030:	55                   	push   %ebp
  401031:	89 e5                	mov    %esp,%ebp
  401033:	83 ec 08             	sub    $0x8,%esp
  401036:	c7 04 24 08 00 00 00 	movl   $0x8,(%esp)
  40103d:	e8 d7 01 00 00       	call   401219 <_malloc>
  401042:	89 45 fc             	mov    %eax,0xfffffffc(%ebp)
  401045:	83 7d fc 00          	cmpl   $0x0,0xfffffffc(%ebp)
  401049:	75 02                	jne    40104d <_atexit+0x1d>
  40104b:	eb 1b                	jmp    401068 <_atexit+0x38>
  40104d:	8b 55 fc             	mov    0xfffffffc(%ebp),%edx
  401050:	8b 45 08             	mov    0x8(%ebp),%eax
  401053:	89 42 04             	mov    %eax,0x4(%edx)
  401056:	8b 55 fc             	mov    0xfffffffc(%ebp),%edx
  401059:	a1 00 80 40 00       	mov    0x408000,%eax
  40105e:	89 02                	mov    %eax,(%edx)
  401060:	8b 45 fc             	mov    0xfffffffc(%ebp),%eax
  401063:	a3 00 80 40 00       	mov    %eax,0x408000
  401068:	c9                   	leave  
  401069:	c3                   	ret    

0040106a <___run_exit_func>:
  40106a:	55                   	push   %ebp
  40106b:	89 e5                	mov    %esp,%ebp
  40106d:	83 ec 08             	sub    $0x8,%esp
  401070:	a1 00 80 40 00       	mov    0x408000,%eax
  401075:	89 45 fc             	mov    %eax,0xfffffffc(%ebp)
  401078:	83 7d fc 00          	cmpl   $0x0,0xfffffffc(%ebp)
  40107c:	74 1b                	je     401099 <___run_exit_func+0x2f>
  40107e:	8b 45 fc             	mov    0xfffffffc(%ebp),%eax
  401081:	83 78 04 00          	cmpl   $0x0,0x4(%eax)
  401085:	74 08                	je     40108f <___run_exit_func+0x25>
  401087:	8b 45 fc             	mov    0xfffffffc(%ebp),%eax
  40108a:	8b 40 04             	mov    0x4(%eax),%eax
  40108d:	ff d0                	call   *%eax
  40108f:	8b 45 fc             	mov    0xfffffffc(%ebp),%eax
  401092:	8b 00                	mov    (%eax),%eax
  401094:	89 45 fc             	mov    %eax,0xfffffffc(%ebp)
  401097:	eb df                	jmp    401078 <___run_exit_func+0xe>
  401099:	c9                   	leave  
  40109a:	c3                   	ret    
  40109b:	90                   	nop    
  40109c:	90                   	nop    
  40109d:	90                   	nop    
  40109e:	90                   	nop    
  40109f:	90                   	nop    

004010a0 <___main>:
  4010a0:	55                   	push   %ebp
  4010a1:	89 e5                	mov    %esp,%ebp
  4010a3:	5d                   	pop    %ebp
  4010a4:	c3                   	ret    
  4010a5:	90                   	nop    

004010a6 <_mainCRTStartup>:
  4010a6:	55                   	push   %ebp
  4010a7:	89 e5                	mov    %esp,%ebp
  4010a9:	83 ec 18             	sub    $0x18,%esp
  4010ac:	e8 29 05 00 00       	call   4015da <___allocation_init>
  4010b1:	e8 ea 00 00 00       	call   4011a0 <_get_ctors>
  4010b6:	89 45 f8             	mov    %eax,0xfffffff8(%ebp)
  4010b9:	8d 45 f8             	lea    0xfffffff8(%ebp),%eax
  4010bc:	83 00 04             	addl   $0x4,(%eax)
  4010bf:	8b 45 f8             	mov    0xfffffff8(%ebp),%eax
  4010c2:	83 38 00             	cmpl   $0x0,(%eax)
  4010c5:	74 0f                	je     4010d6 <_mainCRTStartup+0x30>
  4010c7:	8b 45 f8             	mov    0xfffffff8(%ebp),%eax
  4010ca:	8b 00                	mov    (%eax),%eax
  4010cc:	ff d0                	call   *%eax
  4010ce:	8d 45 f8             	lea    0xfffffff8(%ebp),%eax
  4010d1:	83 00 04             	addl   $0x4,(%eax)
  4010d4:	eb e9                	jmp    4010bf <_mainCRTStartup+0x19>
  4010d6:	e8 f9 46 00 00       	call   4057d4 <_main>
  4010db:	89 45 fc             	mov    %eax,0xfffffffc(%ebp)
  4010de:	e8 87 ff ff ff       	call   40106a <___run_exit_func>
  4010e3:	e8 bf 00 00 00       	call   4011a7 <_get_dtors>
  4010e8:	89 45 f8             	mov    %eax,0xfffffff8(%ebp)
  4010eb:	8d 45 f8             	lea    0xfffffff8(%ebp),%eax
  4010ee:	83 00 04             	addl   $0x4,(%eax)
  4010f1:	8b 45 f8             	mov    0xfffffff8(%ebp),%eax
  4010f4:	83 38 00             	cmpl   $0x0,(%eax)
  4010f7:	74 0f                	je     401108 <_mainCRTStartup+0x62>
  4010f9:	8b 45 f8             	mov    0xfffffff8(%ebp),%eax
  4010fc:	8b 00                	mov    (%eax),%eax
  4010fe:	ff d0                	call   *%eax
  401100:	8d 45 f8             	lea    0xfffffff8(%ebp),%eax
  401103:	83 00 04             	addl   $0x4,(%eax)
  401106:	eb e9                	jmp    4010f1 <_mainCRTStartup+0x4b>
  401108:	8b 45 fc             	mov    0xfffffffc(%ebp),%eax
  40110b:	89 04 24             	mov    %eax,(%esp)
  40110e:	e8 3c 0c 00 00       	call   401d4f <_SysExitThread>
  401113:	8b 45 fc             	mov    0xfffffffc(%ebp),%eax
  401116:	c9                   	leave  
  401117:	c3                   	ret    
  401118:	90                   	nop    
  401119:	90                   	nop    
  40111a:	90                   	nop    
  40111b:	90                   	nop    
  40111c:	90                   	nop    
  40111d:	90                   	nop    
  40111e:	90                   	nop    
  40111f:	90                   	nop    

00401120 <__Znwj>:
  401120:	55                   	push   %ebp
  401121:	89 e5                	mov    %esp,%ebp
  401123:	83 ec 08             	sub    $0x8,%esp
  401126:	8b 45 08             	mov    0x8(%ebp),%eax
  401129:	89 04 24             	mov    %eax,(%esp)
  40112c:	e8 e8 00 00 00       	call   401219 <_malloc>
  401131:	c9                   	leave  
  401132:	c3                   	ret    
  401133:	90                   	nop    

00401134 <__Znaj>:
  401134:	55                   	push   %ebp
  401135:	89 e5                	mov    %esp,%ebp
  401137:	83 ec 08             	sub    $0x8,%esp
  40113a:	8b 45 08             	mov    0x8(%ebp),%eax
  40113d:	89 04 24             	mov    %eax,(%esp)
  401140:	e8 d4 00 00 00       	call   401219 <_malloc>
  401145:	c9                   	leave  
  401146:	c3                   	ret    
  401147:	90                   	nop    

00401148 <__ZdlPv>:
  401148:	55                   	push   %ebp
  401149:	89 e5                	mov    %esp,%ebp
  40114b:	83 ec 08             	sub    $0x8,%esp
  40114e:	8b 45 08             	mov    0x8(%ebp),%eax
  401151:	89 04 24             	mov    %eax,(%esp)
  401154:	e8 2f 03 00 00       	call   401488 <_free>
  401159:	c9                   	leave  
  40115a:	c3                   	ret    
  40115b:	90                   	nop    

0040115c <__ZdaPv>:
  40115c:	55                   	push   %ebp
  40115d:	89 e5                	mov    %esp,%ebp
  40115f:	83 ec 08             	sub    $0x8,%esp
  401162:	8b 45 08             	mov    0x8(%ebp),%eax
  401165:	89 04 24             	mov    %eax,(%esp)
  401168:	e8 1b 03 00 00       	call   401488 <_free>
  40116d:	c9                   	leave  
  40116e:	c3                   	ret    
  40116f:	90                   	nop    

00401170 <___cxa_pure_virtual>:
  401170:	55                   	push   %ebp
  401171:	89 e5                	mov    %esp,%ebp
  401173:	5d                   	pop    %ebp
  401174:	c3                   	ret    
  401175:	90                   	nop    
  401176:	90                   	nop    
  401177:	90                   	nop    
  401178:	90                   	nop    
  401179:	90                   	nop    
  40117a:	90                   	nop    
  40117b:	90                   	nop    
  40117c:	90                   	nop    
  40117d:	90                   	nop    
  40117e:	90                   	nop    
  40117f:	90                   	nop    

00401180 <__alloca>:
  401180:	52                   	push   %edx
  401181:	89 e2                	mov    %esp,%edx
  401183:	83 c2 08             	add    $0x8,%edx
  401186:	29 c2                	sub    %eax,%edx
  401188:	89 e0                	mov    %esp,%eax
  40118a:	89 d4                	mov    %edx,%esp
  40118c:	8b 10                	mov    (%eax),%edx
  40118e:	8b 40 04             	mov    0x4(%eax),%eax
  401191:	ff e0                	jmp    *%eax
  401193:	90                   	nop    
  401194:	90                   	nop    
  401195:	90                   	nop    
  401196:	90                   	nop    
  401197:	90                   	nop    
  401198:	90                   	nop    
  401199:	90                   	nop    
  40119a:	90                   	nop    
  40119b:	90                   	nop    
  40119c:	90                   	nop    
  40119d:	90                   	nop    
  40119e:	90                   	nop    
  40119f:	90                   	nop    

004011a0 <_get_ctors>:
  4011a0:	8d 05 b0 58 40 00    	lea    0x4058b0,%eax
  4011a6:	c3                   	ret    

004011a7 <_get_dtors>:
  4011a7:	8d 05 b8 58 40 00    	lea    0x4058b8,%eax
  4011ad:	c3                   	ret    
  4011ae:	90                   	nop    
  4011af:	90                   	nop    

004011b0 <_calc_hash_index>:
  4011b0:	55                   	push   %ebp
  4011b1:	89 e5                	mov    %esp,%ebp
  4011b3:	83 ec 04             	sub    $0x4,%esp
  4011b6:	c1 6d 08 05          	shrl   $0x5,0x8(%ebp)
  4011ba:	c7 45 fc 00 00 00 00 	movl   $0x0,0xfffffffc(%ebp)
  4011c1:	83 7d 08 01          	cmpl   $0x1,0x8(%ebp)
  4011c5:	76 0a                	jbe    4011d1 <_calc_hash_index+0x21>
  4011c7:	d1 6d 08             	shrl   0x8(%ebp)
  4011ca:	8d 45 fc             	lea    0xfffffffc(%ebp),%eax
  4011cd:	ff 00                	incl   (%eax)
  4011cf:	eb f0                	jmp    4011c1 <_calc_hash_index+0x11>
  4011d1:	83 7d fc 12          	cmpl   $0x12,0xfffffffc(%ebp)
  4011d5:	7e 07                	jle    4011de <_calc_hash_index+0x2e>
  4011d7:	c7 45 fc 12 00 00 00 	movl   $0x12,0xfffffffc(%ebp)
  4011de:	8b 45 fc             	mov    0xfffffffc(%ebp),%eax
  4011e1:	c9                   	leave  
  4011e2:	c3                   	ret    

004011e3 <_lock>:
  4011e3:	55                   	push   %ebp
  4011e4:	89 e5                	mov    %esp,%ebp
  4011e6:	83 ec 08             	sub    $0x8,%esp
  4011e9:	ff 0d 70 80 40 00    	decl   0x408070
  4011ef:	83 3d 70 80 40 00 00 	cmpl   $0x0,0x408070
  4011f6:	74 14                	je     40120c <_lock+0x29>
  4011f8:	ff 05 70 80 40 00    	incl   0x408070
  4011fe:	c7 04 24 01 00 00 00 	movl   $0x1,(%esp)
  401205:	e8 5a 0d 00 00       	call   401f64 <_SysSleepThread>
  40120a:	eb dd                	jmp    4011e9 <_lock+0x6>
  40120c:	c9                   	leave  
  40120d:	c3                   	ret    

0040120e <_unlock>:
  40120e:	55                   	push   %ebp
  40120f:	89 e5                	mov    %esp,%ebp
  401211:	ff 05 70 80 40 00    	incl   0x408070
  401217:	5d                   	pop    %ebp
  401218:	c3                   	ret    

00401219 <_malloc>:
  401219:	55                   	push   %ebp
  40121a:	89 e5                	mov    %esp,%ebp
  40121c:	83 ec 28             	sub    $0x28,%esp
  40121f:	83 7d 08 00          	cmpl   $0x0,0x8(%ebp)
  401223:	75 0c                	jne    401231 <_malloc+0x18>
  401225:	c7 45 e0 00 00 00 00 	movl   $0x0,0xffffffe0(%ebp)
  40122c:	e9 bc 01 00 00       	jmp    4013ed <_malloc+0x1d4>
  401231:	83 3d 60 80 40 00 00 	cmpl   $0x0,0x408060
  401238:	75 05                	jne    40123f <_malloc+0x26>
  40123a:	e8 9b 03 00 00       	call   4015da <___allocation_init>
  40123f:	83 7d 08 07          	cmpl   $0x7,0x8(%ebp)
  401243:	77 07                	ja     40124c <_malloc+0x33>
  401245:	c7 45 08 08 00 00 00 	movl   $0x8,0x8(%ebp)
  40124c:	8b 45 08             	mov    0x8(%ebp),%eax
  40124f:	83 c0 18             	add    $0x18,%eax
  401252:	89 45 fc             	mov    %eax,0xfffffffc(%ebp)
  401255:	8b 45 fc             	mov    0xfffffffc(%ebp),%eax
  401258:	89 04 24             	mov    %eax,(%esp)
  40125b:	e8 50 ff ff ff       	call   4011b0 <_calc_hash_index>
  401260:	89 45 f4             	mov    %eax,0xfffffff4(%ebp)
  401263:	e8 7b ff ff ff       	call   4011e3 <_lock>
  401268:	8b 45 f4             	mov    0xfffffff4(%ebp),%eax
  40126b:	89 45 f0             	mov    %eax,0xfffffff0(%ebp)
  40126e:	83 7d f0 12          	cmpl   $0x12,0xfffffff0(%ebp)
  401272:	0f 87 69 01 00 00    	ja     4013e1 <_malloc+0x1c8>
  401278:	8b 45 f0             	mov    0xfffffff0(%ebp),%eax
  40127b:	8b 04 85 10 80 40 00 	mov    0x408010(,%eax,4),%eax
  401282:	89 45 ec             	mov    %eax,0xffffffec(%ebp)
  401285:	83 7d ec 00          	cmpl   $0x0,0xffffffec(%ebp)
  401289:	74 16                	je     4012a1 <_malloc+0x88>
  40128b:	8b 45 ec             	mov    0xffffffec(%ebp),%eax
  40128e:	8b 40 14             	mov    0x14(%eax),%eax
  401291:	3b 45 08             	cmp    0x8(%ebp),%eax
  401294:	73 0b                	jae    4012a1 <_malloc+0x88>
  401296:	8b 45 ec             	mov    0xffffffec(%ebp),%eax
  401299:	8b 40 0c             	mov    0xc(%eax),%eax
  40129c:	89 45 ec             	mov    %eax,0xffffffec(%ebp)
  40129f:	eb e4                	jmp    401285 <_malloc+0x6c>
  4012a1:	83 7d ec 00          	cmpl   $0x0,0xffffffec(%ebp)
  4012a5:	0f 84 2c 01 00 00    	je     4013d7 <_malloc+0x1be>
  4012ab:	8b 45 ec             	mov    0xffffffec(%ebp),%eax
  4012ae:	8b 55 fc             	mov    0xfffffffc(%ebp),%edx
  4012b1:	8b 40 14             	mov    0x14(%eax),%eax
  4012b4:	29 d0                	sub    %edx,%eax
  4012b6:	83 c0 18             	add    $0x18,%eax
  4012b9:	89 45 e8             	mov    %eax,0xffffffe8(%ebp)
  4012bc:	8b 45 ec             	mov    0xffffffec(%ebp),%eax
  4012bf:	83 78 08 00          	cmpl   $0x0,0x8(%eax)
  4012c3:	74 11                	je     4012d6 <_malloc+0xbd>
  4012c5:	8b 45 ec             	mov    0xffffffec(%ebp),%eax
  4012c8:	8b 50 08             	mov    0x8(%eax),%edx
  4012cb:	8b 45 ec             	mov    0xffffffec(%ebp),%eax
  4012ce:	8b 40 0c             	mov    0xc(%eax),%eax
  4012d1:	89 42 0c             	mov    %eax,0xc(%edx)
  4012d4:	eb 10                	jmp    4012e6 <_malloc+0xcd>
  4012d6:	8b 45 f0             	mov    0xfffffff0(%ebp),%eax
  4012d9:	8b 55 ec             	mov    0xffffffec(%ebp),%edx
  4012dc:	8b 52 0c             	mov    0xc(%edx),%edx
  4012df:	89 14 85 10 80 40 00 	mov    %edx,0x408010(,%eax,4)
  4012e6:	8b 45 ec             	mov    0xffffffec(%ebp),%eax
  4012e9:	83 78 0c 00          	cmpl   $0x0,0xc(%eax)
  4012ed:	74 0f                	je     4012fe <_malloc+0xe5>
  4012ef:	8b 45 ec             	mov    0xffffffec(%ebp),%eax
  4012f2:	8b 50 0c             	mov    0xc(%eax),%edx
  4012f5:	8b 45 ec             	mov    0xffffffec(%ebp),%eax
  4012f8:	8b 40 08             	mov    0x8(%eax),%eax
  4012fb:	89 42 08             	mov    %eax,0x8(%edx)
  4012fe:	8b 45 ec             	mov    0xffffffec(%ebp),%eax
  401301:	8b 55 ec             	mov    0xffffffec(%ebp),%edx
  401304:	8b 52 10             	mov    0x10(%edx),%edx
  401307:	83 e2 fe             	and    $0xfffffffe,%edx
  40130a:	89 50 10             	mov    %edx,0x10(%eax)
  40130d:	83 7d e8 1f          	cmpl   $0x1f,0xffffffe8(%ebp)
  401311:	0f 86 b0 00 00 00    	jbe    4013c7 <_malloc+0x1ae>
  401317:	8b 45 fc             	mov    0xfffffffc(%ebp),%eax
  40131a:	03 45 ec             	add    0xffffffec(%ebp),%eax
  40131d:	89 45 e4             	mov    %eax,0xffffffe4(%ebp)
  401320:	8b 55 e4             	mov    0xffffffe4(%ebp),%edx
  401323:	8b 45 e8             	mov    0xffffffe8(%ebp),%eax
  401326:	83 e8 18             	sub    $0x18,%eax
  401329:	89 42 14             	mov    %eax,0x14(%edx)
  40132c:	8b 55 ec             	mov    0xffffffec(%ebp),%edx
  40132f:	8b 45 08             	mov    0x8(%ebp),%eax
  401332:	89 42 14             	mov    %eax,0x14(%edx)
  401335:	8b 55 e4             	mov    0xffffffe4(%ebp),%edx
  401338:	8b 45 ec             	mov    0xffffffec(%ebp),%eax
  40133b:	8b 40 04             	mov    0x4(%eax),%eax
  40133e:	89 42 04             	mov    %eax,0x4(%edx)
  401341:	8b 45 e4             	mov    0xffffffe4(%ebp),%eax
  401344:	83 78 04 00          	cmpl   $0x0,0x4(%eax)
  401348:	74 0b                	je     401355 <_malloc+0x13c>
  40134a:	8b 45 e4             	mov    0xffffffe4(%ebp),%eax
  40134d:	8b 50 04             	mov    0x4(%eax),%edx
  401350:	8b 45 e4             	mov    0xffffffe4(%ebp),%eax
  401353:	89 02                	mov    %eax,(%edx)
  401355:	8b 55 ec             	mov    0xffffffec(%ebp),%edx
  401358:	8b 45 e4             	mov    0xffffffe4(%ebp),%eax
  40135b:	89 42 04             	mov    %eax,0x4(%edx)
  40135e:	8b 55 e4             	mov    0xffffffe4(%ebp),%edx
  401361:	8b 45 ec             	mov    0xffffffec(%ebp),%eax
  401364:	89 02                	mov    %eax,(%edx)
  401366:	8b 45 e8             	mov    0xffffffe8(%ebp),%eax
  401369:	89 04 24             	mov    %eax,(%esp)
  40136c:	e8 3f fe ff ff       	call   4011b0 <_calc_hash_index>
  401371:	89 45 f8             	mov    %eax,0xfffffff8(%ebp)
  401374:	8b 55 e4             	mov    0xffffffe4(%ebp),%edx
  401377:	8b 45 f8             	mov    0xfffffff8(%ebp),%eax
  40137a:	8b 04 85 10 80 40 00 	mov    0x408010(,%eax,4),%eax
  401381:	89 42 0c             	mov    %eax,0xc(%edx)
  401384:	8b 45 e4             	mov    0xffffffe4(%ebp),%eax
  401387:	c7 40 08 00 00 00 00 	movl   $0x0,0x8(%eax)
  40138e:	8b 45 f8             	mov    0xfffffff8(%ebp),%eax
  401391:	83 3c 85 10 80 40 00 	cmpl   $0x0,0x408010(,%eax,4)
  401398:	00 
  401399:	74 10                	je     4013ab <_malloc+0x192>
  40139b:	8b 45 f8             	mov    0xfffffff8(%ebp),%eax
  40139e:	8b 14 85 10 80 40 00 	mov    0x408010(,%eax,4),%edx
  4013a5:	8b 45 e4             	mov    0xffffffe4(%ebp),%eax
  4013a8:	89 42 08             	mov    %eax,0x8(%edx)
  4013ab:	8b 55 f8             	mov    0xfffffff8(%ebp),%edx
  4013ae:	8b 45 e4             	mov    0xffffffe4(%ebp),%eax
  4013b1:	89 04 95 10 80 40 00 	mov    %eax,0x408010(,%edx,4)
  4013b8:	8b 55 e4             	mov    0xffffffe4(%ebp),%edx
  4013bb:	8b 45 e4             	mov    0xffffffe4(%ebp),%eax
  4013be:	8b 40 10             	mov    0x10(%eax),%eax
  4013c1:	83 c8 01             	or     $0x1,%eax
  4013c4:	89 42 10             	mov    %eax,0x10(%edx)
  4013c7:	e8 42 fe ff ff       	call   40120e <_unlock>
  4013cc:	8b 45 ec             	mov    0xffffffec(%ebp),%eax
  4013cf:	83 c0 18             	add    $0x18,%eax
  4013d2:	89 45 e0             	mov    %eax,0xffffffe0(%ebp)
  4013d5:	eb 16                	jmp    4013ed <_malloc+0x1d4>
  4013d7:	8d 45 f0             	lea    0xfffffff0(%ebp),%eax
  4013da:	ff 00                	incl   (%eax)
  4013dc:	e9 8d fe ff ff       	jmp    40126e <_malloc+0x55>
  4013e1:	e8 28 fe ff ff       	call   40120e <_unlock>
  4013e6:	c7 45 e0 00 00 00 00 	movl   $0x0,0xffffffe0(%ebp)
  4013ed:	8b 45 e0             	mov    0xffffffe0(%ebp),%eax
  4013f0:	c9                   	leave  
  4013f1:	c3                   	ret    

004013f2 <_merge>:
  4013f2:	55                   	push   %ebp
  4013f3:	89 e5                	mov    %esp,%ebp
  4013f5:	83 ec 08             	sub    $0x8,%esp
  4013f8:	8b 45 10             	mov    0x10(%ebp),%eax
  4013fb:	8b 40 14             	mov    0x14(%eax),%eax
  4013fe:	83 c0 18             	add    $0x18,%eax
  401401:	89 04 24             	mov    %eax,(%esp)
  401404:	e8 a7 fd ff ff       	call   4011b0 <_calc_hash_index>
  401409:	89 45 fc             	mov    %eax,0xfffffffc(%ebp)
  40140c:	8b 45 10             	mov    0x10(%ebp),%eax
  40140f:	83 78 08 00          	cmpl   $0x0,0x8(%eax)
  401413:	74 11                	je     401426 <_merge+0x34>
  401415:	8b 45 10             	mov    0x10(%ebp),%eax
  401418:	8b 50 08             	mov    0x8(%eax),%edx
  40141b:	8b 45 10             	mov    0x10(%ebp),%eax
  40141e:	8b 40 0c             	mov    0xc(%eax),%eax
  401421:	89 42 0c             	mov    %eax,0xc(%edx)
  401424:	eb 10                	jmp    401436 <_merge+0x44>
  401426:	8b 45 fc             	mov    0xfffffffc(%ebp),%eax
  401429:	8b 55 10             	mov    0x10(%ebp),%edx
  40142c:	8b 52 0c             	mov    0xc(%edx),%edx
  40142f:	89 14 85 10 80 40 00 	mov    %edx,0x408010(,%eax,4)
  401436:	8b 45 10             	mov    0x10(%ebp),%eax
  401439:	83 78 0c 00          	cmpl   $0x0,0xc(%eax)
  40143d:	74 0f                	je     40144e <_merge+0x5c>
  40143f:	8b 45 10             	mov    0x10(%ebp),%eax
  401442:	8b 50 0c             	mov    0xc(%eax),%edx
  401445:	8b 45 10             	mov    0x10(%ebp),%eax
  401448:	8b 40 08             	mov    0x8(%eax),%eax
  40144b:	89 42 08             	mov    %eax,0x8(%edx)
  40144e:	8b 4d 08             	mov    0x8(%ebp),%ecx
  401451:	8b 55 08             	mov    0x8(%ebp),%edx
  401454:	8b 45 0c             	mov    0xc(%ebp),%eax
  401457:	8b 40 14             	mov    0x14(%eax),%eax
  40145a:	03 42 14             	add    0x14(%edx),%eax
  40145d:	83 c0 18             	add    $0x18,%eax
  401460:	89 41 14             	mov    %eax,0x14(%ecx)
  401463:	8b 55 08             	mov    0x8(%ebp),%edx
  401466:	8b 45 0c             	mov    0xc(%ebp),%eax
  401469:	8b 40 04             	mov    0x4(%eax),%eax
  40146c:	89 42 04             	mov    %eax,0x4(%edx)
  40146f:	8b 45 08             	mov    0x8(%ebp),%eax
  401472:	83 78 04 00          	cmpl   $0x0,0x4(%eax)
  401476:	74 0b                	je     401483 <_merge+0x91>
  401478:	8b 45 08             	mov    0x8(%ebp),%eax
  40147b:	8b 50 04             	mov    0x4(%eax),%edx
  40147e:	8b 45 08             	mov    0x8(%ebp),%eax
  401481:	89 02                	mov    %eax,(%edx)
  401483:	8b 45 08             	mov    0x8(%ebp),%eax
  401486:	c9                   	leave  
  401487:	c3                   	ret    

00401488 <_free>:
  401488:	55                   	push   %ebp
  401489:	89 e5                	mov    %esp,%ebp
  40148b:	83 ec 18             	sub    $0x18,%esp
  40148e:	83 7d 08 00          	cmpl   $0x0,0x8(%ebp)
  401492:	75 05                	jne    401499 <_free+0x11>
  401494:	e9 0a 01 00 00       	jmp    4015a3 <_free+0x11b>
  401499:	8b 45 08             	mov    0x8(%ebp),%eax
  40149c:	83 e8 18             	sub    $0x18,%eax
  40149f:	89 45 f8             	mov    %eax,0xfffffff8(%ebp)
  4014a2:	8b 45 f8             	mov    0xfffffff8(%ebp),%eax
  4014a5:	8b 40 10             	mov    0x10(%eax),%eax
  4014a8:	83 e0 01             	and    $0x1,%eax
  4014ab:	85 c0                	test   %eax,%eax
  4014ad:	74 11                	je     4014c0 <_free+0x38>
  4014af:	c7 04 24 10 70 40 00 	movl   $0x407010,(%esp)
  4014b6:	e8 f5 17 00 00       	call   402cb0 <_printf>
  4014bb:	e9 e3 00 00 00       	jmp    4015a3 <_free+0x11b>
  4014c0:	8b 55 f8             	mov    0xfffffff8(%ebp),%edx
  4014c3:	8b 45 f8             	mov    0xfffffff8(%ebp),%eax
  4014c6:	8b 40 10             	mov    0x10(%eax),%eax
  4014c9:	83 c8 01             	or     $0x1,%eax
  4014cc:	89 42 10             	mov    %eax,0x10(%edx)
  4014cf:	e8 0f fd ff ff       	call   4011e3 <_lock>
  4014d4:	8b 45 f8             	mov    0xfffffff8(%ebp),%eax
  4014d7:	83 38 00             	cmpl   $0x0,(%eax)
  4014da:	74 2f                	je     40150b <_free+0x83>
  4014dc:	8b 45 f8             	mov    0xfffffff8(%ebp),%eax
  4014df:	8b 00                	mov    (%eax),%eax
  4014e1:	8b 40 10             	mov    0x10(%eax),%eax
  4014e4:	83 e0 01             	and    $0x1,%eax
  4014e7:	85 c0                	test   %eax,%eax
  4014e9:	74 20                	je     40150b <_free+0x83>
  4014eb:	8b 45 f8             	mov    0xfffffff8(%ebp),%eax
  4014ee:	8b 00                	mov    (%eax),%eax
  4014f0:	89 44 24 08          	mov    %eax,0x8(%esp)
  4014f4:	8b 45 f8             	mov    0xfffffff8(%ebp),%eax
  4014f7:	89 44 24 04          	mov    %eax,0x4(%esp)
  4014fb:	8b 45 f8             	mov    0xfffffff8(%ebp),%eax
  4014fe:	8b 00                	mov    (%eax),%eax
  401500:	89 04 24             	mov    %eax,(%esp)
  401503:	e8 ea fe ff ff       	call   4013f2 <_merge>
  401508:	89 45 f8             	mov    %eax,0xfffffff8(%ebp)
  40150b:	8b 45 f8             	mov    0xfffffff8(%ebp),%eax
  40150e:	83 78 04 00          	cmpl   $0x0,0x4(%eax)
  401512:	74 32                	je     401546 <_free+0xbe>
  401514:	8b 45 f8             	mov    0xfffffff8(%ebp),%eax
  401517:	8b 40 04             	mov    0x4(%eax),%eax
  40151a:	8b 40 10             	mov    0x10(%eax),%eax
  40151d:	83 e0 01             	and    $0x1,%eax
  401520:	85 c0                	test   %eax,%eax
  401522:	74 22                	je     401546 <_free+0xbe>
  401524:	8b 45 f8             	mov    0xfffffff8(%ebp),%eax
  401527:	8b 40 04             	mov    0x4(%eax),%eax
  40152a:	89 44 24 08          	mov    %eax,0x8(%esp)
  40152e:	8b 45 f8             	mov    0xfffffff8(%ebp),%eax
  401531:	8b 40 04             	mov    0x4(%eax),%eax
  401534:	89 44 24 04          	mov    %eax,0x4(%esp)
  401538:	8b 45 f8             	mov    0xfffffff8(%ebp),%eax
  40153b:	89 04 24             	mov    %eax,(%esp)
  40153e:	e8 af fe ff ff       	call   4013f2 <_merge>
  401543:	89 45 f8             	mov    %eax,0xfffffff8(%ebp)
  401546:	8b 45 f8             	mov    0xfffffff8(%ebp),%eax
  401549:	8b 40 14             	mov    0x14(%eax),%eax
  40154c:	83 c0 18             	add    $0x18,%eax
  40154f:	89 04 24             	mov    %eax,(%esp)
  401552:	e8 59 fc ff ff       	call   4011b0 <_calc_hash_index>
  401557:	89 45 fc             	mov    %eax,0xfffffffc(%ebp)
  40155a:	8b 55 f8             	mov    0xfffffff8(%ebp),%edx
  40155d:	8b 45 fc             	mov    0xfffffffc(%ebp),%eax
  401560:	8b 04 85 10 80 40 00 	mov    0x408010(,%eax,4),%eax
  401567:	89 42 0c             	mov    %eax,0xc(%edx)
  40156a:	8b 45 f8             	mov    0xfffffff8(%ebp),%eax
  40156d:	c7 40 08 00 00 00 00 	movl   $0x0,0x8(%eax)
  401574:	8b 45 fc             	mov    0xfffffffc(%ebp),%eax
  401577:	83 3c 85 10 80 40 00 	cmpl   $0x0,0x408010(,%eax,4)
  40157e:	00 
  40157f:	74 10                	je     401591 <_free+0x109>
  401581:	8b 45 fc             	mov    0xfffffffc(%ebp),%eax
  401584:	8b 14 85 10 80 40 00 	mov    0x408010(,%eax,4),%edx
  40158b:	8b 45 f8             	mov    0xfffffff8(%ebp),%eax
  40158e:	89 42 08             	mov    %eax,0x8(%edx)
  401591:	8b 55 fc             	mov    0xfffffffc(%ebp),%edx
  401594:	8b 45 f8             	mov    0xfffffff8(%ebp),%eax
  401597:	89 04 95 10 80 40 00 	mov    %eax,0x408010(,%edx,4)
  40159e:	e8 6b fc ff ff       	call   40120e <_unlock>
  4015a3:	c9                   	leave  
  4015a4:	c3                   	ret    

004015a5 <_calloc>:
  4015a5:	55                   	push   %ebp
  4015a6:	89 e5                	mov    %esp,%ebp
  4015a8:	83 ec 08             	sub    $0x8,%esp
  4015ab:	8b 45 08             	mov    0x8(%ebp),%eax
  4015ae:	0f af 45 0c          	imul   0xc(%ebp),%eax
  4015b2:	89 04 24             	mov    %eax,(%esp)
  4015b5:	e8 5f fc ff ff       	call   401219 <_malloc>
  4015ba:	c9                   	leave  
  4015bb:	c3                   	ret    

004015bc <_realloc>:
  4015bc:	55                   	push   %ebp
  4015bd:	89 e5                	mov    %esp,%ebp
  4015bf:	83 ec 08             	sub    $0x8,%esp
  4015c2:	8b 45 08             	mov    0x8(%ebp),%eax
  4015c5:	89 04 24             	mov    %eax,(%esp)
  4015c8:	e8 bb fe ff ff       	call   401488 <_free>
  4015cd:	8b 45 0c             	mov    0xc(%ebp),%eax
  4015d0:	89 04 24             	mov    %eax,(%esp)
  4015d3:	e8 41 fc ff ff       	call   401219 <_malloc>
  4015d8:	c9                   	leave  
  4015d9:	c3                   	ret    

004015da <___allocation_init>:
  4015da:	55                   	push   %ebp
  4015db:	89 e5                	mov    %esp,%ebp
  4015dd:	83 ec 28             	sub    $0x28,%esp
  4015e0:	c7 45 fc 00 00 00 10 	movl   $0x10000000,0xfffffffc(%ebp)
  4015e7:	c7 44 24 08 4c 00 00 	movl   $0x4c,0x8(%esp)
  4015ee:	00 
  4015ef:	c7 44 24 04 00 00 00 	movl   $0x0,0x4(%esp)
  4015f6:	00 
  4015f7:	c7 04 24 10 80 40 00 	movl   $0x408010,(%esp)
  4015fe:	e8 8c 23 00 00       	call   40398f <_memset>
  401603:	e8 6a 0b 00 00       	call   402172 <_SysGetCurrentSpaceId>
  401608:	c7 44 24 0c 40 00 00 	movl   $0x40,0xc(%esp)
  40160f:	00 
  401610:	c7 44 24 08 02 00 00 	movl   $0x2,0x8(%esp)
  401617:	00 
  401618:	8b 55 fc             	mov    0xfffffffc(%ebp),%edx
  40161b:	89 54 24 04          	mov    %edx,0x4(%esp)
  40161f:	89 04 24             	mov    %eax,(%esp)
  401622:	e8 93 0c 00 00       	call   4022ba <_SysAllocateMemory>
  401627:	89 45 f8             	mov    %eax,0xfffffff8(%ebp)
  40162a:	83 7d f8 00          	cmpl   $0x0,0xfffffff8(%ebp)
  40162e:	75 18                	jne    401648 <___allocation_init+0x6e>
  401630:	c7 04 24 2f 70 40 00 	movl   $0x40702f,(%esp)
  401637:	e8 74 16 00 00       	call   402cb0 <_printf>
  40163c:	c7 04 24 ff ff ff ff 	movl   $0xffffffff,(%esp)
  401643:	e8 c4 06 00 00       	call   401d0c <_SysExitSpace>
  401648:	8b 45 f8             	mov    0xfffffff8(%ebp),%eax
  40164b:	89 45 f4             	mov    %eax,0xfffffff4(%ebp)
  40164e:	8b 55 f4             	mov    0xfffffff4(%ebp),%edx
  401651:	8b 45 f4             	mov    0xfffffff4(%ebp),%eax
  401654:	c7 40 04 00 00 00 00 	movl   $0x0,0x4(%eax)
  40165b:	c7 02 00 00 00 00    	movl   $0x0,(%edx)
  401661:	8b 55 f4             	mov    0xfffffff4(%ebp),%edx
  401664:	8b 45 fc             	mov    0xfffffffc(%ebp),%eax
  401667:	83 e8 18             	sub    $0x18,%eax
  40166a:	89 42 14             	mov    %eax,0x14(%edx)
  40166d:	8b 55 f4             	mov    0xfffffff4(%ebp),%edx
  401670:	a1 58 80 40 00       	mov    0x408058,%eax
  401675:	89 42 0c             	mov    %eax,0xc(%edx)
  401678:	8b 45 f4             	mov    0xfffffff4(%ebp),%eax
  40167b:	c7 40 08 00 00 00 00 	movl   $0x0,0x8(%eax)
  401682:	83 3d 58 80 40 00 00 	cmpl   $0x0,0x408058
  401689:	74 0c                	je     401697 <___allocation_init+0xbd>
  40168b:	8b 15 58 80 40 00    	mov    0x408058,%edx
  401691:	8b 45 f4             	mov    0xfffffff4(%ebp),%eax
  401694:	89 42 08             	mov    %eax,0x8(%edx)
  401697:	8b 45 f4             	mov    0xfffffff4(%ebp),%eax
  40169a:	a3 58 80 40 00       	mov    %eax,0x408058
  40169f:	8b 55 f4             	mov    0xfffffff4(%ebp),%edx
  4016a2:	8b 45 f4             	mov    0xfffffff4(%ebp),%eax
  4016a5:	8b 40 10             	mov    0x10(%eax),%eax
  4016a8:	83 c8 01             	or     $0x1,%eax
  4016ab:	89 42 10             	mov    %eax,0x10(%edx)
  4016ae:	8b 45 f4             	mov    0xfffffff4(%ebp),%eax
  4016b1:	a3 60 80 40 00       	mov    %eax,0x408060
  4016b6:	c7 05 70 80 40 00 01 	movl   $0x1,0x408070
  4016bd:	00 00 00 
  4016c0:	c9                   	leave  
  4016c1:	c3                   	ret    

004016c2 <_debug_print>:
  4016c2:	55                   	push   %ebp
  4016c3:	89 e5                	mov    %esp,%ebp
  4016c5:	83 ec 28             	sub    $0x28,%esp
  4016c8:	c7 04 24 46 70 40 00 	movl   $0x407046,(%esp)
  4016cf:	e8 dc 15 00 00       	call   402cb0 <_printf>
  4016d4:	a1 60 80 40 00       	mov    0x408060,%eax
  4016d9:	89 45 f0             	mov    %eax,0xfffffff0(%ebp)
  4016dc:	c7 45 f4 00 00 00 00 	movl   $0x0,0xfffffff4(%ebp)
  4016e3:	c7 45 f8 00 00 00 00 	movl   $0x0,0xfffffff8(%ebp)
  4016ea:	83 7d f0 00          	cmpl   $0x0,0xfffffff0(%ebp)
  4016ee:	74 6a                	je     40175a <_debug_print+0x98>
  4016f0:	8b 45 f0             	mov    0xfffffff0(%ebp),%eax
  4016f3:	8b 40 10             	mov    0x10(%eax),%eax
  4016f6:	83 e0 01             	and    $0x1,%eax
  4016f9:	85 c0                	test   %eax,%eax
  4016fb:	74 2a                	je     401727 <_debug_print+0x65>
  4016fd:	8b 45 f0             	mov    0xfffffff0(%ebp),%eax
  401700:	8b 40 14             	mov    0x14(%eax),%eax
  401703:	83 c0 18             	add    $0x18,%eax
  401706:	89 44 24 04          	mov    %eax,0x4(%esp)
  40170a:	c7 04 24 5b 70 40 00 	movl   $0x40705b,(%esp)
  401711:	e8 9a 15 00 00       	call   402cb0 <_printf>
  401716:	8b 55 f0             	mov    0xfffffff0(%ebp),%edx
  401719:	8b 45 f4             	mov    0xfffffff4(%ebp),%eax
  40171c:	03 42 14             	add    0x14(%edx),%eax
  40171f:	83 c0 18             	add    $0x18,%eax
  401722:	89 45 f4             	mov    %eax,0xfffffff4(%ebp)
  401725:	eb 28                	jmp    40174f <_debug_print+0x8d>
  401727:	8b 45 f0             	mov    0xfffffff0(%ebp),%eax
  40172a:	8b 40 14             	mov    0x14(%eax),%eax
  40172d:	83 c0 18             	add    $0x18,%eax
  401730:	89 44 24 04          	mov    %eax,0x4(%esp)
  401734:	c7 04 24 67 70 40 00 	movl   $0x407067,(%esp)
  40173b:	e8 70 15 00 00       	call   402cb0 <_printf>
  401740:	8b 55 f0             	mov    0xfffffff0(%ebp),%edx
  401743:	8b 45 f8             	mov    0xfffffff8(%ebp),%eax
  401746:	03 42 14             	add    0x14(%edx),%eax
  401749:	83 c0 18             	add    $0x18,%eax
  40174c:	89 45 f8             	mov    %eax,0xfffffff8(%ebp)
  40174f:	8b 45 f0             	mov    0xfffffff0(%ebp),%eax
  401752:	8b 40 04             	mov    0x4(%eax),%eax
  401755:	89 45 f0             	mov    %eax,0xfffffff0(%ebp)
  401758:	eb 90                	jmp    4016ea <_debug_print+0x28>
  40175a:	8b 45 f4             	mov    0xfffffff4(%ebp),%eax
  40175d:	03 45 f8             	add    0xfffffff8(%ebp),%eax
  401760:	89 44 24 0c          	mov    %eax,0xc(%esp)
  401764:	8b 45 f4             	mov    0xfffffff4(%ebp),%eax
  401767:	89 44 24 08          	mov    %eax,0x8(%esp)
  40176b:	8b 45 f8             	mov    0xfffffff8(%ebp),%eax
  40176e:	89 44 24 04          	mov    %eax,0x4(%esp)
  401772:	c7 04 24 74 70 40 00 	movl   $0x407074,(%esp)
  401779:	e8 32 15 00 00       	call   402cb0 <_printf>
  40177e:	c7 04 24 b3 70 40 00 	movl   $0x4070b3,(%esp)
  401785:	e8 26 15 00 00       	call   402cb0 <_printf>
  40178a:	c7 45 fc 00 00 00 00 	movl   $0x0,0xfffffffc(%ebp)
  401791:	83 7d fc 12          	cmpl   $0x12,0xfffffffc(%ebp)
  401795:	7f 67                	jg     4017fe <_debug_print+0x13c>
  401797:	8b 4d fc             	mov    0xfffffffc(%ebp),%ecx
  40179a:	83 c1 05             	add    $0x5,%ecx
  40179d:	b8 01 00 00 00       	mov    $0x1,%eax
  4017a2:	d3 e0                	shl    %cl,%eax
  4017a4:	89 44 24 04          	mov    %eax,0x4(%esp)
  4017a8:	c7 04 24 cb 70 40 00 	movl   $0x4070cb,(%esp)
  4017af:	e8 fc 14 00 00       	call   402cb0 <_printf>
  4017b4:	8b 45 fc             	mov    0xfffffffc(%ebp),%eax
  4017b7:	8b 04 85 10 80 40 00 	mov    0x408010(,%eax,4),%eax
  4017be:	89 45 f0             	mov    %eax,0xfffffff0(%ebp)
  4017c1:	83 7d f0 00          	cmpl   $0x0,0xfffffff0(%ebp)
  4017c5:	74 24                	je     4017eb <_debug_print+0x129>
  4017c7:	8b 45 f0             	mov    0xfffffff0(%ebp),%eax
  4017ca:	8b 40 14             	mov    0x14(%eax),%eax
  4017cd:	83 c0 18             	add    $0x18,%eax
  4017d0:	89 44 24 04          	mov    %eax,0x4(%esp)
  4017d4:	c7 04 24 d5 70 40 00 	movl   $0x4070d5,(%esp)
  4017db:	e8 d0 14 00 00       	call   402cb0 <_printf>
  4017e0:	8b 45 f0             	mov    0xfffffff0(%ebp),%eax
  4017e3:	8b 40 0c             	mov    0xc(%eax),%eax
  4017e6:	89 45 f0             	mov    %eax,0xfffffff0(%ebp)
  4017e9:	eb d6                	jmp    4017c1 <_debug_print+0xff>
  4017eb:	c7 04 24 da 70 40 00 	movl   $0x4070da,(%esp)
  4017f2:	e8 b9 14 00 00       	call   402cb0 <_printf>
  4017f7:	8d 45 fc             	lea    0xfffffffc(%ebp),%eax
  4017fa:	ff 00                	incl   (%eax)
  4017fc:	eb 93                	jmp    401791 <_debug_print+0xcf>
  4017fe:	c9                   	leave  
  4017ff:	c3                   	ret    

00401800 <_Api_Test>:
#include <sgos.h>

//system call for SGOS2
//调试
SYSCALL0( 0, uint, Test );
  401800:	55                   	push   %ebp
  401801:	89 e5                	mov    %esp,%ebp
  401803:	83 ec 04             	sub    $0x4,%esp
  401806:	b8 00 00 00 00       	mov    $0x0,%eax
  40180b:	b9 00 00 00 00       	mov    $0x0,%ecx
  401810:	cd a1                	int    $0xa1
  401812:	89 45 fc             	mov    %eax,0xfffffffc(%ebp)
  401815:	8b 45 fc             	mov    0xfffffffc(%ebp),%eax
  401818:	c9                   	leave  
  401819:	c3                   	ret    

0040181a <_Api_Print>:
SYSCALL2( 1, int, Print, const char*, buf, int, nbytes );
  40181a:	55                   	push   %ebp
  40181b:	89 e5                	mov    %esp,%ebp
  40181d:	53                   	push   %ebx
  40181e:	83 ec 04             	sub    $0x4,%esp
  401821:	b8 01 00 00 00       	mov    $0x1,%eax
  401826:	8b 5d 08             	mov    0x8(%ebp),%ebx
  401829:	8b 4d 0c             	mov    0xc(%ebp),%ecx
  40182c:	cd a1                	int    $0xa1
  40182e:	89 45 f8             	mov    %eax,0xfffffff8(%ebp)
  401831:	8b 45 f8             	mov    0xfffffff8(%ebp),%eax
  401834:	83 c4 04             	add    $0x4,%esp
  401837:	5b                   	pop    %ebx
  401838:	5d                   	pop    %ebp
  401839:	c3                   	ret    

0040183a <_Api_Send>:
//消息处理
SYSCALL2( 2, int, Send, Message*, msg, time_t, timeout );
  40183a:	55                   	push   %ebp
  40183b:	89 e5                	mov    %esp,%ebp
  40183d:	53                   	push   %ebx
  40183e:	83 ec 04             	sub    $0x4,%esp
  401841:	b8 02 00 00 00       	mov    $0x2,%eax
  401846:	8b 5d 08             	mov    0x8(%ebp),%ebx
  401849:	8b 4d 0c             	mov    0xc(%ebp),%ecx
  40184c:	cd a1                	int    $0xa1
  40184e:	89 45 f8             	mov    %eax,0xfffffff8(%ebp)
  401851:	8b 45 f8             	mov    0xfffffff8(%ebp),%eax
  401854:	83 c4 04             	add    $0x4,%esp
  401857:	5b                   	pop    %ebx
  401858:	5d                   	pop    %ebp
  401859:	c3                   	ret    

0040185a <_Api_Receive>:
SYSCALL2( 3, int, Receive, Message*, msg, time_t, timeout );
  40185a:	55                   	push   %ebp
  40185b:	89 e5                	mov    %esp,%ebp
  40185d:	53                   	push   %ebx
  40185e:	83 ec 04             	sub    $0x4,%esp
  401861:	b8 03 00 00 00       	mov    $0x3,%eax
  401866:	8b 5d 08             	mov    0x8(%ebp),%ebx
  401869:	8b 4d 0c             	mov    0xc(%ebp),%ecx
  40186c:	cd a1                	int    $0xa1
  40186e:	89 45 f8             	mov    %eax,0xfffffff8(%ebp)
  401871:	8b 45 f8             	mov    0xfffffff8(%ebp),%eax
  401874:	83 c4 04             	add    $0x4,%esp
  401877:	5b                   	pop    %ebx
  401878:	5d                   	pop    %ebp
  401879:	c3                   	ret    

0040187a <_Api_InvokeBiosService>:
SYSCALL3( 4, int, InvokeBiosService, int, int_no, void*, context, size_t, context_size );
  40187a:	55                   	push   %ebp
  40187b:	89 e5                	mov    %esp,%ebp
  40187d:	53                   	push   %ebx
  40187e:	83 ec 04             	sub    $0x4,%esp
  401881:	b8 04 00 00 00       	mov    $0x4,%eax
  401886:	8b 5d 08             	mov    0x8(%ebp),%ebx
  401889:	8b 4d 0c             	mov    0xc(%ebp),%ecx
  40188c:	8b 55 10             	mov    0x10(%ebp),%edx
  40188f:	cd a1                	int    $0xa1
  401891:	89 45 f8             	mov    %eax,0xfffffff8(%ebp)
  401894:	8b 45 f8             	mov    0xfffffff8(%ebp),%eax
  401897:	83 c4 04             	add    $0x4,%esp
  40189a:	5b                   	pop    %ebx
  40189b:	5d                   	pop    %ebp
  40189c:	c3                   	ret    

0040189d <_ReplyMessage>:
#include "../kernel/include/apidef.h"
#include <stdio.h>

int ReplyMessage( Message* msg )
{
  40189d:	55                   	push   %ebp
  40189e:	89 e5                	mov    %esp,%ebp
  4018a0:	83 ec 08             	sub    $0x8,%esp
	return Api_Send( msg, 0 );
  4018a3:	c7 44 24 04 00 00 00 	movl   $0x0,0x4(%esp)
  4018aa:	00 
  4018ab:	8b 45 08             	mov    0x8(%ebp),%eax
  4018ae:	89 04 24             	mov    %eax,(%esp)
  4018b1:	e8 84 ff ff ff       	call   40183a <_Api_Send>
}
  4018b6:	c9                   	leave  
  4018b7:	c3                   	ret    

004018b8 <_WaitMessage>:

int WaitMessage( Message* msg )
{
  4018b8:	55                   	push   %ebp
  4018b9:	89 e5                	mov    %esp,%ebp
  4018bb:	83 ec 08             	sub    $0x8,%esp
	msg->ThreadId = ANY_THREAD;
  4018be:	8b 45 08             	mov    0x8(%ebp),%eax
  4018c1:	c7 00 ff ff ff ff    	movl   $0xffffffff,(%eax)
	msg->Command = 0;
  4018c7:	8b 45 08             	mov    0x8(%ebp),%eax
  4018ca:	c7 40 08 00 00 00 00 	movl   $0x0,0x8(%eax)
	return ReceiveMessage( msg, INFINITE );
  4018d1:	c7 44 24 04 ff ff ff 	movl   $0xffffffff,0x4(%esp)
  4018d8:	ff 
  4018d9:	8b 45 08             	mov    0x8(%ebp),%eax
  4018dc:	89 04 24             	mov    %eax,(%esp)
  4018df:	e8 02 00 00 00       	call   4018e6 <_ReceiveMessage>
}
  4018e4:	c9                   	leave  
  4018e5:	c3                   	ret    

004018e6 <_ReceiveMessage>:

int ReceiveMessage( Message* msg, time_t timeout )
{
  4018e6:	55                   	push   %ebp
  4018e7:	89 e5                	mov    %esp,%ebp
  4018e9:	83 ec 08             	sub    $0x8,%esp
	return Api_Receive( msg, timeout );
  4018ec:	8b 45 0c             	mov    0xc(%ebp),%eax
  4018ef:	89 44 24 04          	mov    %eax,0x4(%esp)
  4018f3:	8b 45 08             	mov    0x8(%ebp),%eax
  4018f6:	89 04 24             	mov    %eax,(%esp)
  4018f9:	e8 5c ff ff ff       	call   40185a <_Api_Receive>
}
  4018fe:	c9                   	leave  
  4018ff:	c3                   	ret    

00401900 <_SendMessage>:

int SendMessage( uint dest, uint cmd, uint *arg1, uint *arg2, uint *arg3, uint *arg4, uint *ret )
{
  401900:	55                   	push   %ebp
  401901:	89 e5                	mov    %esp,%ebp
  401903:	57                   	push   %edi
  401904:	83 ec 74             	sub    $0x74,%esp
	int result;
	Message msg = { SystemId, 0};
  401907:	8d 7d a8             	lea    0xffffffa8(%ebp),%edi
  40190a:	fc                   	cld    
  40190b:	ba 00 00 00 00       	mov    $0x0,%edx
  401910:	b8 10 00 00 00       	mov    $0x10,%eax
  401915:	89 c1                	mov    %eax,%ecx
  401917:	89 d0                	mov    %edx,%eax
  401919:	f3 ab                	repz stos %eax,%es:(%edi)
	msg.ThreadId = dest;
  40191b:	8b 45 08             	mov    0x8(%ebp),%eax
  40191e:	89 45 a8             	mov    %eax,0xffffffa8(%ebp)
	msg.Command = cmd;
  401921:	8b 45 0c             	mov    0xc(%ebp),%eax
  401924:	89 45 b0             	mov    %eax,0xffffffb0(%ebp)
	if( arg1 )
  401927:	83 7d 10 00          	cmpl   $0x0,0x10(%ebp)
  40192b:	74 08                	je     401935 <_SendMessage+0x35>
		msg.Arguments[0] = *arg1;
  40192d:	8b 45 10             	mov    0x10(%ebp),%eax
  401930:	8b 00                	mov    (%eax),%eax
  401932:	89 45 b4             	mov    %eax,0xffffffb4(%ebp)
	if( arg2 )
  401935:	83 7d 14 00          	cmpl   $0x0,0x14(%ebp)
  401939:	74 08                	je     401943 <_SendMessage+0x43>
		msg.Arguments[1] = *arg2;
  40193b:	8b 45 14             	mov    0x14(%ebp),%eax
  40193e:	8b 00                	mov    (%eax),%eax
  401940:	89 45 b8             	mov    %eax,0xffffffb8(%ebp)
	if( arg3 )
  401943:	83 7d 18 00          	cmpl   $0x0,0x18(%ebp)
  401947:	74 08                	je     401951 <_SendMessage+0x51>
		msg.Arguments[2] = *arg3;
  401949:	8b 45 18             	mov    0x18(%ebp),%eax
  40194c:	8b 00                	mov    (%eax),%eax
  40194e:	89 45 bc             	mov    %eax,0xffffffbc(%ebp)
	if( arg4 )
  401951:	83 7d 1c 00          	cmpl   $0x0,0x1c(%ebp)
  401955:	74 08                	je     40195f <_SendMessage+0x5f>
		msg.Arguments[3] = *arg4;
  401957:	8b 45 1c             	mov    0x1c(%ebp),%eax
  40195a:	8b 00                	mov    (%eax),%eax
  40195c:	89 45 c0             	mov    %eax,0xffffffc0(%ebp)
	result = Api_Send( &msg, 0 );
  40195f:	c7 44 24 04 00 00 00 	movl   $0x0,0x4(%esp)
  401966:	00 
  401967:	8d 45 a8             	lea    0xffffffa8(%ebp),%eax
  40196a:	89 04 24             	mov    %eax,(%esp)
  40196d:	e8 c8 fe ff ff       	call   40183a <_Api_Send>
  401972:	89 45 f4             	mov    %eax,0xfffffff4(%ebp)
	if( result < 0 ){
  401975:	83 7d f4 00          	cmpl   $0x0,0xfffffff4(%ebp)
  401979:	79 22                	jns    40199d <_SendMessage+0x9d>
		printf("[api]Failed to Send Message %x result=%d\n", cmd, result );
  40197b:	8b 45 f4             	mov    0xfffffff4(%ebp),%eax
  40197e:	89 44 24 08          	mov    %eax,0x8(%esp)
  401982:	8b 45 0c             	mov    0xc(%ebp),%eax
  401985:	89 44 24 04          	mov    %eax,0x4(%esp)
  401989:	c7 04 24 e0 70 40 00 	movl   $0x4070e0,(%esp)
  401990:	e8 1b 13 00 00       	call   402cb0 <_printf>
		return result;
  401995:	8b 45 f4             	mov    0xfffffff4(%ebp),%eax
  401998:	89 45 a4             	mov    %eax,0xffffffa4(%ebp)
  40199b:	eb 7b                	jmp    401a18 <_SendMessage+0x118>
	}
	result = Api_Receive( &msg, 3*1000 ); //3 seconds.
  40199d:	c7 44 24 04 b8 0b 00 	movl   $0xbb8,0x4(%esp)
  4019a4:	00 
  4019a5:	8d 45 a8             	lea    0xffffffa8(%ebp),%eax
  4019a8:	89 04 24             	mov    %eax,(%esp)
  4019ab:	e8 aa fe ff ff       	call   40185a <_Api_Receive>
  4019b0:	89 45 f4             	mov    %eax,0xfffffff4(%ebp)
	if( result == ERR_TIMEOUT ){
  4019b3:	83 7d f4 0d          	cmpl   $0xd,0xfffffff4(%ebp)
  4019b7:	75 13                	jne    4019cc <_SendMessage+0xcc>
		printf("[api]Receive timeout. cmd:%x\n", cmd );
  4019b9:	8b 45 0c             	mov    0xc(%ebp),%eax
  4019bc:	89 44 24 04          	mov    %eax,0x4(%esp)
  4019c0:	c7 04 24 0a 71 40 00 	movl   $0x40710a,(%esp)
  4019c7:	e8 e4 12 00 00       	call   402cb0 <_printf>
	}
	if( arg1 )
  4019cc:	83 7d 10 00          	cmpl   $0x0,0x10(%ebp)
  4019d0:	74 08                	je     4019da <_SendMessage+0xda>
		*arg1 = msg.Arguments[0];
  4019d2:	8b 55 10             	mov    0x10(%ebp),%edx
  4019d5:	8b 45 b4             	mov    0xffffffb4(%ebp),%eax
  4019d8:	89 02                	mov    %eax,(%edx)
	if( arg2 )
  4019da:	83 7d 14 00          	cmpl   $0x0,0x14(%ebp)
  4019de:	74 08                	je     4019e8 <_SendMessage+0xe8>
		*arg2 = msg.Arguments[1];
  4019e0:	8b 55 14             	mov    0x14(%ebp),%edx
  4019e3:	8b 45 b8             	mov    0xffffffb8(%ebp),%eax
  4019e6:	89 02                	mov    %eax,(%edx)
	if( arg3 )
  4019e8:	83 7d 18 00          	cmpl   $0x0,0x18(%ebp)
  4019ec:	74 08                	je     4019f6 <_SendMessage+0xf6>
		*arg3 = msg.Arguments[2];
  4019ee:	8b 55 18             	mov    0x18(%ebp),%edx
  4019f1:	8b 45 bc             	mov    0xffffffbc(%ebp),%eax
  4019f4:	89 02                	mov    %eax,(%edx)
	if( arg4 )
  4019f6:	83 7d 1c 00          	cmpl   $0x0,0x1c(%ebp)
  4019fa:	74 08                	je     401a04 <_SendMessage+0x104>
		*arg4= msg.Arguments[3];
  4019fc:	8b 55 1c             	mov    0x1c(%ebp),%edx
  4019ff:	8b 45 c0             	mov    0xffffffc0(%ebp),%eax
  401a02:	89 02                	mov    %eax,(%edx)
	if( ret )
  401a04:	83 7d 20 00          	cmpl   $0x0,0x20(%ebp)
  401a08:	74 08                	je     401a12 <_SendMessage+0x112>
		*ret = msg.Code;
  401a0a:	8b 55 20             	mov    0x20(%ebp),%edx
  401a0d:	8b 45 dc             	mov    0xffffffdc(%ebp),%eax
  401a10:	89 02                	mov    %eax,(%edx)
	return result;
  401a12:	8b 45 f4             	mov    0xfffffff4(%ebp),%eax
  401a15:	89 45 a4             	mov    %eax,0xffffffa4(%ebp)
}
  401a18:	8b 45 a4             	mov    0xffffffa4(%ebp),%eax
  401a1b:	83 c4 74             	add    $0x74,%esp
  401a1e:	5f                   	pop    %edi
  401a1f:	5d                   	pop    %ebp
  401a20:	c3                   	ret    

00401a21 <_SendMessageEx>:

int SendMessageEx( uint dest, uint cmd, uint *arg1, uint *arg2, uint *arg3, uint *arg4, uint *arg5,
	uint *arg6, uint *arg7, uint* arg8, uint *ret )
{
  401a21:	55                   	push   %ebp
  401a22:	89 e5                	mov    %esp,%ebp
  401a24:	57                   	push   %edi
  401a25:	83 ec 74             	sub    $0x74,%esp
	int result;
	Message msg = { SystemId, 0};
  401a28:	8d 7d a8             	lea    0xffffffa8(%ebp),%edi
  401a2b:	fc                   	cld    
  401a2c:	ba 00 00 00 00       	mov    $0x0,%edx
  401a31:	b8 10 00 00 00       	mov    $0x10,%eax
  401a36:	89 c1                	mov    %eax,%ecx
  401a38:	89 d0                	mov    %edx,%eax
  401a3a:	f3 ab                	repz stos %eax,%es:(%edi)
	msg.ThreadId = dest;
  401a3c:	8b 45 08             	mov    0x8(%ebp),%eax
  401a3f:	89 45 a8             	mov    %eax,0xffffffa8(%ebp)
	msg.Command = cmd;
  401a42:	8b 45 0c             	mov    0xc(%ebp),%eax
  401a45:	89 45 b0             	mov    %eax,0xffffffb0(%ebp)
	if( arg1 )
  401a48:	83 7d 10 00          	cmpl   $0x0,0x10(%ebp)
  401a4c:	74 08                	je     401a56 <_SendMessageEx+0x35>
		msg.Arguments[0] = *arg1;
  401a4e:	8b 45 10             	mov    0x10(%ebp),%eax
  401a51:	8b 00                	mov    (%eax),%eax
  401a53:	89 45 b4             	mov    %eax,0xffffffb4(%ebp)
	if( arg2 )
  401a56:	83 7d 14 00          	cmpl   $0x0,0x14(%ebp)
  401a5a:	74 08                	je     401a64 <_SendMessageEx+0x43>
		msg.Arguments[1] = *arg2;
  401a5c:	8b 45 14             	mov    0x14(%ebp),%eax
  401a5f:	8b 00                	mov    (%eax),%eax
  401a61:	89 45 b8             	mov    %eax,0xffffffb8(%ebp)
	if( arg3 )
  401a64:	83 7d 18 00          	cmpl   $0x0,0x18(%ebp)
  401a68:	74 08                	je     401a72 <_SendMessageEx+0x51>
		msg.Arguments[2] = *arg3;
  401a6a:	8b 45 18             	mov    0x18(%ebp),%eax
  401a6d:	8b 00                	mov    (%eax),%eax
  401a6f:	89 45 bc             	mov    %eax,0xffffffbc(%ebp)
	if( arg4 )
  401a72:	83 7d 1c 00          	cmpl   $0x0,0x1c(%ebp)
  401a76:	74 08                	je     401a80 <_SendMessageEx+0x5f>
		msg.Arguments[3] = *arg4;
  401a78:	8b 45 1c             	mov    0x1c(%ebp),%eax
  401a7b:	8b 00                	mov    (%eax),%eax
  401a7d:	89 45 c0             	mov    %eax,0xffffffc0(%ebp)
	if( arg5 )
  401a80:	83 7d 20 00          	cmpl   $0x0,0x20(%ebp)
  401a84:	74 08                	je     401a8e <_SendMessageEx+0x6d>
		msg.Arguments[4] = *arg5;
  401a86:	8b 45 20             	mov    0x20(%ebp),%eax
  401a89:	8b 00                	mov    (%eax),%eax
  401a8b:	89 45 c4             	mov    %eax,0xffffffc4(%ebp)
	if( arg6 )
  401a8e:	83 7d 24 00          	cmpl   $0x0,0x24(%ebp)
  401a92:	74 08                	je     401a9c <_SendMessageEx+0x7b>
		msg.Arguments[5] = *arg6;
  401a94:	8b 45 24             	mov    0x24(%ebp),%eax
  401a97:	8b 00                	mov    (%eax),%eax
  401a99:	89 45 c8             	mov    %eax,0xffffffc8(%ebp)
	if( arg7 )
  401a9c:	83 7d 28 00          	cmpl   $0x0,0x28(%ebp)
  401aa0:	74 08                	je     401aaa <_SendMessageEx+0x89>
		msg.Arguments[6] = *arg7;
  401aa2:	8b 45 28             	mov    0x28(%ebp),%eax
  401aa5:	8b 00                	mov    (%eax),%eax
  401aa7:	89 45 cc             	mov    %eax,0xffffffcc(%ebp)
	if( arg8 )
  401aaa:	83 7d 2c 00          	cmpl   $0x0,0x2c(%ebp)
  401aae:	74 08                	je     401ab8 <_SendMessageEx+0x97>
		msg.Arguments[7] = *arg8;
  401ab0:	8b 45 2c             	mov    0x2c(%ebp),%eax
  401ab3:	8b 00                	mov    (%eax),%eax
  401ab5:	89 45 d0             	mov    %eax,0xffffffd0(%ebp)
	result = Api_Send( &msg, 0 );
  401ab8:	c7 44 24 04 00 00 00 	movl   $0x0,0x4(%esp)
  401abf:	00 
  401ac0:	8d 45 a8             	lea    0xffffffa8(%ebp),%eax
  401ac3:	89 04 24             	mov    %eax,(%esp)
  401ac6:	e8 6f fd ff ff       	call   40183a <_Api_Send>
  401acb:	89 45 f4             	mov    %eax,0xfffffff4(%ebp)
	if( result < 0 ){
  401ace:	83 7d f4 00          	cmpl   $0x0,0xfffffff4(%ebp)
  401ad2:	79 25                	jns    401af9 <_SendMessageEx+0xd8>
		printf("[servicemanager]Failed to Send Message %x result=%d\n", cmd, result );
  401ad4:	8b 45 f4             	mov    0xfffffff4(%ebp),%eax
  401ad7:	89 44 24 08          	mov    %eax,0x8(%esp)
  401adb:	8b 45 0c             	mov    0xc(%ebp),%eax
  401ade:	89 44 24 04          	mov    %eax,0x4(%esp)
  401ae2:	c7 04 24 28 71 40 00 	movl   $0x407128,(%esp)
  401ae9:	e8 c2 11 00 00       	call   402cb0 <_printf>
		return result;
  401aee:	8b 45 f4             	mov    0xfffffff4(%ebp),%eax
  401af1:	89 45 a4             	mov    %eax,0xffffffa4(%ebp)
  401af4:	e9 b3 00 00 00       	jmp    401bac <_SendMessageEx+0x18b>
	}
	result = Api_Receive( &msg, 3*1000 ); //3 seconds.
  401af9:	c7 44 24 04 b8 0b 00 	movl   $0xbb8,0x4(%esp)
  401b00:	00 
  401b01:	8d 45 a8             	lea    0xffffffa8(%ebp),%eax
  401b04:	89 04 24             	mov    %eax,(%esp)
  401b07:	e8 4e fd ff ff       	call   40185a <_Api_Receive>
  401b0c:	89 45 f4             	mov    %eax,0xfffffff4(%ebp)
	if( result == ERR_TIMEOUT ){
  401b0f:	83 7d f4 0d          	cmpl   $0xd,0xfffffff4(%ebp)
  401b13:	75 13                	jne    401b28 <_SendMessageEx+0x107>
		printf("[servicemanager]Receive timeout. cmd:%d\n", cmd );
  401b15:	8b 45 0c             	mov    0xc(%ebp),%eax
  401b18:	89 44 24 04          	mov    %eax,0x4(%esp)
  401b1c:	c7 04 24 60 71 40 00 	movl   $0x407160,(%esp)
  401b23:	e8 88 11 00 00       	call   402cb0 <_printf>
	}
	if( arg1 )
  401b28:	83 7d 10 00          	cmpl   $0x0,0x10(%ebp)
  401b2c:	74 08                	je     401b36 <_SendMessageEx+0x115>
		*arg1 = msg.Arguments[0];
  401b2e:	8b 55 10             	mov    0x10(%ebp),%edx
  401b31:	8b 45 b4             	mov    0xffffffb4(%ebp),%eax
  401b34:	89 02                	mov    %eax,(%edx)
	if( arg2 )
  401b36:	83 7d 14 00          	cmpl   $0x0,0x14(%ebp)
  401b3a:	74 08                	je     401b44 <_SendMessageEx+0x123>
		*arg2 = msg.Arguments[1];
  401b3c:	8b 55 14             	mov    0x14(%ebp),%edx
  401b3f:	8b 45 b8             	mov    0xffffffb8(%ebp),%eax
  401b42:	89 02                	mov    %eax,(%edx)
	if( arg3 )
  401b44:	83 7d 18 00          	cmpl   $0x0,0x18(%ebp)
  401b48:	74 08                	je     401b52 <_SendMessageEx+0x131>
		*arg3 = msg.Arguments[2];
  401b4a:	8b 55 18             	mov    0x18(%ebp),%edx
  401b4d:	8b 45 bc             	mov    0xffffffbc(%ebp),%eax
  401b50:	89 02                	mov    %eax,(%edx)
	if( arg4 )
  401b52:	83 7d 1c 00          	cmpl   $0x0,0x1c(%ebp)
  401b56:	74 08                	je     401b60 <_SendMessageEx+0x13f>
		*arg4= msg.Arguments[3];
  401b58:	8b 55 1c             	mov    0x1c(%ebp),%edx
  401b5b:	8b 45 c0             	mov    0xffffffc0(%ebp),%eax
  401b5e:	89 02                	mov    %eax,(%edx)
	if( arg5 )
  401b60:	83 7d 20 00          	cmpl   $0x0,0x20(%ebp)
  401b64:	74 08                	je     401b6e <_SendMessageEx+0x14d>
		*arg5= msg.Arguments[4];
  401b66:	8b 55 20             	mov    0x20(%ebp),%edx
  401b69:	8b 45 c4             	mov    0xffffffc4(%ebp),%eax
  401b6c:	89 02                	mov    %eax,(%edx)
	if( arg6 )
  401b6e:	83 7d 24 00          	cmpl   $0x0,0x24(%ebp)
  401b72:	74 08                	je     401b7c <_SendMessageEx+0x15b>
		*arg6= msg.Arguments[5];
  401b74:	8b 55 24             	mov    0x24(%ebp),%edx
  401b77:	8b 45 c8             	mov    0xffffffc8(%ebp),%eax
  401b7a:	89 02                	mov    %eax,(%edx)
	if( arg7 )
  401b7c:	83 7d 28 00          	cmpl   $0x0,0x28(%ebp)
  401b80:	74 08                	je     401b8a <_SendMessageEx+0x169>
		*arg7= msg.Arguments[6];
  401b82:	8b 55 28             	mov    0x28(%ebp),%edx
  401b85:	8b 45 cc             	mov    0xffffffcc(%ebp),%eax
  401b88:	89 02                	mov    %eax,(%edx)
	if( arg8 )
  401b8a:	83 7d 2c 00          	cmpl   $0x0,0x2c(%ebp)
  401b8e:	74 08                	je     401b98 <_SendMessageEx+0x177>
		*arg8= msg.Arguments[7];
  401b90:	8b 55 2c             	mov    0x2c(%ebp),%edx
  401b93:	8b 45 d0             	mov    0xffffffd0(%ebp),%eax
  401b96:	89 02                	mov    %eax,(%edx)
	if( ret )
  401b98:	83 7d 30 00          	cmpl   $0x0,0x30(%ebp)
  401b9c:	74 08                	je     401ba6 <_SendMessageEx+0x185>
		*ret = msg.Code;
  401b9e:	8b 55 30             	mov    0x30(%ebp),%edx
  401ba1:	8b 45 dc             	mov    0xffffffdc(%ebp),%eax
  401ba4:	89 02                	mov    %eax,(%edx)
	return result;
  401ba6:	8b 45 f4             	mov    0xfffffff4(%ebp),%eax
  401ba9:	89 45 a4             	mov    %eax,0xffffffa4(%ebp)
}
  401bac:	8b 45 a4             	mov    0xffffffa4(%ebp),%eax
  401baf:	83 c4 74             	add    $0x74,%esp
  401bb2:	5f                   	pop    %edi
  401bb3:	5d                   	pop    %ebp
  401bb4:	c3                   	ret    

00401bb5 <_SysGetSystemInformation>:

void* SysGetSystemInformation()
{
  401bb5:	55                   	push   %ebp
  401bb6:	89 e5                	mov    %esp,%ebp
  401bb8:	83 ec 28             	sub    $0x28,%esp
	void* ptr=NULL;
  401bbb:	c7 45 fc 00 00 00 00 	movl   $0x0,0xfffffffc(%ebp)
	ProcessInformation* pi = (ProcessInformation*)GetCurrentProcessInformation();
  401bc2:	e8 5d 10 00 00       	call   402c24 <_GetCurrentProcessInformation>
  401bc7:	89 45 f8             	mov    %eax,0xfffffff8(%ebp)
	if( pi ){
  401bca:	83 7d f8 00          	cmpl   $0x0,0xfffffff8(%ebp)
  401bce:	74 0e                	je     401bde <_SysGetSystemInformation+0x29>
		return pi->SystemInformation;
  401bd0:	8b 45 f8             	mov    0xfffffff8(%ebp),%eax
  401bd3:	8b 80 b0 00 00 00    	mov    0xb0(%eax),%eax
  401bd9:	89 45 f4             	mov    %eax,0xfffffff4(%ebp)
  401bdc:	eb 4e                	jmp    401c2c <_SysGetSystemInformation+0x77>
	}
	if( SendMessage( SystemId, System_GetSystemInformation, NULL, NULL, NULL, NULL, (void*)&ptr ) < 0 )
  401bde:	8d 45 fc             	lea    0xfffffffc(%ebp),%eax
  401be1:	89 44 24 18          	mov    %eax,0x18(%esp)
  401be5:	c7 44 24 14 00 00 00 	movl   $0x0,0x14(%esp)
  401bec:	00 
  401bed:	c7 44 24 10 00 00 00 	movl   $0x0,0x10(%esp)
  401bf4:	00 
  401bf5:	c7 44 24 0c 00 00 00 	movl   $0x0,0xc(%esp)
  401bfc:	00 
  401bfd:	c7 44 24 08 00 00 00 	movl   $0x0,0x8(%esp)
  401c04:	00 
  401c05:	c7 44 24 04 01 00 00 	movl   $0x1,0x4(%esp)
  401c0c:	00 
  401c0d:	c7 04 24 00 00 00 00 	movl   $0x0,(%esp)
  401c14:	e8 e7 fc ff ff       	call   401900 <_SendMessage>
  401c19:	85 c0                	test   %eax,%eax
  401c1b:	79 09                	jns    401c26 <_SysGetSystemInformation+0x71>
		return NULL;
  401c1d:	c7 45 f4 00 00 00 00 	movl   $0x0,0xfffffff4(%ebp)
  401c24:	eb 06                	jmp    401c2c <_SysGetSystemInformation+0x77>
	return ptr;
  401c26:	8b 45 fc             	mov    0xfffffffc(%ebp),%eax
  401c29:	89 45 f4             	mov    %eax,0xfffffff4(%ebp)
}
  401c2c:	8b 45 f4             	mov    0xfffffff4(%ebp),%eax
  401c2f:	c9                   	leave  
  401c30:	c3                   	ret    

00401c31 <_SysEnableInterrupt>:

void SysEnableInterrupt(int no, int b)
{
  401c31:	55                   	push   %ebp
  401c32:	89 e5                	mov    %esp,%ebp
  401c34:	83 ec 28             	sub    $0x28,%esp
	if( SendMessage( SystemId, System_EnableInterrupt, &no, &b, NULL, NULL, NULL ) < 0 )
  401c37:	c7 44 24 18 00 00 00 	movl   $0x0,0x18(%esp)
  401c3e:	00 
  401c3f:	c7 44 24 14 00 00 00 	movl   $0x0,0x14(%esp)
  401c46:	00 
  401c47:	c7 44 24 10 00 00 00 	movl   $0x0,0x10(%esp)
  401c4e:	00 
  401c4f:	8d 45 0c             	lea    0xc(%ebp),%eax
  401c52:	89 44 24 0c          	mov    %eax,0xc(%esp)
  401c56:	8d 45 08             	lea    0x8(%ebp),%eax
  401c59:	89 44 24 08          	mov    %eax,0x8(%esp)
  401c5d:	c7 44 24 04 02 00 00 	movl   $0x2,0x4(%esp)
  401c64:	00 
  401c65:	c7 04 24 00 00 00 00 	movl   $0x0,(%esp)
  401c6c:	e8 8f fc ff ff       	call   401900 <_SendMessage>
  401c71:	85 c0                	test   %eax,%eax
  401c73:	79 0c                	jns    401c81 <_SysEnableInterrupt+0x50>
		printf("[api]failed to send message.\n");
  401c75:	c7 04 24 89 71 40 00 	movl   $0x407189,(%esp)
  401c7c:	e8 2f 10 00 00       	call   402cb0 <_printf>
}
  401c81:	c9                   	leave  
  401c82:	c3                   	ret    

00401c83 <_SysAddInterruptHandler>:

int SysAddInterruptHandler(int no, uint tid)
{
  401c83:	55                   	push   %ebp
  401c84:	89 e5                	mov    %esp,%ebp
  401c86:	83 ec 28             	sub    $0x28,%esp
	int code;
	uint result = SendMessage( SystemId, System_AddInterruptHandler, (void*)&no, &tid, 
  401c89:	8d 45 fc             	lea    0xfffffffc(%ebp),%eax
  401c8c:	89 44 24 18          	mov    %eax,0x18(%esp)
  401c90:	c7 44 24 14 00 00 00 	movl   $0x0,0x14(%esp)
  401c97:	00 
  401c98:	c7 44 24 10 00 00 00 	movl   $0x0,0x10(%esp)
  401c9f:	00 
  401ca0:	8d 45 0c             	lea    0xc(%ebp),%eax
  401ca3:	89 44 24 0c          	mov    %eax,0xc(%esp)
  401ca7:	8d 45 08             	lea    0x8(%ebp),%eax
  401caa:	89 44 24 08          	mov    %eax,0x8(%esp)
  401cae:	c7 44 24 04 03 00 00 	movl   $0x3,0x4(%esp)
  401cb5:	00 
  401cb6:	c7 04 24 00 00 00 00 	movl   $0x0,(%esp)
  401cbd:	e8 3e fc ff ff       	call   401900 <_SendMessage>
  401cc2:	89 45 f8             	mov    %eax,0xfffffff8(%ebp)
		NULL, NULL, (void*)&code );
	if( result < 0 )
		return result;
	return code;
  401cc5:	8b 45 fc             	mov    0xfffffffc(%ebp),%eax
}
  401cc8:	c9                   	leave  
  401cc9:	c3                   	ret    

00401cca <_SysDelInterruptHandler>:

void SysDelInterruptHandler(int no, uint tid)
{
  401cca:	55                   	push   %ebp
  401ccb:	89 e5                	mov    %esp,%ebp
  401ccd:	83 ec 28             	sub    $0x28,%esp
	SendMessage( SystemId, System_DelInterruptHandler, &no, &tid, NULL, NULL, NULL );
  401cd0:	c7 44 24 18 00 00 00 	movl   $0x0,0x18(%esp)
  401cd7:	00 
  401cd8:	c7 44 24 14 00 00 00 	movl   $0x0,0x14(%esp)
  401cdf:	00 
  401ce0:	c7 44 24 10 00 00 00 	movl   $0x0,0x10(%esp)
  401ce7:	00 
  401ce8:	8d 45 0c             	lea    0xc(%ebp),%eax
  401ceb:	89 44 24 0c          	mov    %eax,0xc(%esp)
  401cef:	8d 45 08             	lea    0x8(%ebp),%eax
  401cf2:	89 44 24 08          	mov    %eax,0x8(%esp)
  401cf6:	c7 44 24 04 04 00 00 	movl   $0x4,0x4(%esp)
  401cfd:	00 
  401cfe:	c7 04 24 00 00 00 00 	movl   $0x0,(%esp)
  401d05:	e8 f6 fb ff ff       	call   401900 <_SendMessage>
}
  401d0a:	c9                   	leave  
  401d0b:	c3                   	ret    

00401d0c <_SysExitSpace>:


void SysExitSpace(uint code)
{
  401d0c:	55                   	push   %ebp
  401d0d:	89 e5                	mov    %esp,%ebp
  401d0f:	83 ec 28             	sub    $0x28,%esp
	SendMessage( SystemId, System_ExitSpace, &code, NULL, NULL, NULL, NULL );
  401d12:	c7 44 24 18 00 00 00 	movl   $0x0,0x18(%esp)
  401d19:	00 
  401d1a:	c7 44 24 14 00 00 00 	movl   $0x0,0x14(%esp)
  401d21:	00 
  401d22:	c7 44 24 10 00 00 00 	movl   $0x0,0x10(%esp)
  401d29:	00 
  401d2a:	c7 44 24 0c 00 00 00 	movl   $0x0,0xc(%esp)
  401d31:	00 
  401d32:	8d 45 08             	lea    0x8(%ebp),%eax
  401d35:	89 44 24 08          	mov    %eax,0x8(%esp)
  401d39:	c7 44 24 04 01 20 00 	movl   $0x2001,0x4(%esp)
  401d40:	00 
  401d41:	c7 04 24 00 00 00 00 	movl   $0x0,(%esp)
  401d48:	e8 b3 fb ff ff       	call   401900 <_SendMessage>
}
  401d4d:	c9                   	leave  
  401d4e:	c3                   	ret    

00401d4f <_SysExitThread>:

void SysExitThread(uint code)
{
  401d4f:	55                   	push   %ebp
  401d50:	89 e5                	mov    %esp,%ebp
  401d52:	83 ec 28             	sub    $0x28,%esp
	SendMessage( SystemId, System_ExitThread, &code, NULL, NULL, NULL, NULL );
  401d55:	c7 44 24 18 00 00 00 	movl   $0x0,0x18(%esp)
  401d5c:	00 
  401d5d:	c7 44 24 14 00 00 00 	movl   $0x0,0x14(%esp)
  401d64:	00 
  401d65:	c7 44 24 10 00 00 00 	movl   $0x0,0x10(%esp)
  401d6c:	00 
  401d6d:	c7 44 24 0c 00 00 00 	movl   $0x0,0xc(%esp)
  401d74:	00 
  401d75:	8d 45 08             	lea    0x8(%ebp),%eax
  401d78:	89 44 24 08          	mov    %eax,0x8(%esp)
  401d7c:	c7 44 24 04 01 10 00 	movl   $0x1001,0x4(%esp)
  401d83:	00 
  401d84:	c7 04 24 00 00 00 00 	movl   $0x0,(%esp)
  401d8b:	e8 70 fb ff ff       	call   401900 <_SendMessage>
}
  401d90:	c9                   	leave  
  401d91:	c3                   	ret    

00401d92 <_SysAllocateGlobalMemory>:

void* SysAllocateGlobalMemory( size_t siz, uint attr, uint flag )
{
  401d92:	55                   	push   %ebp
  401d93:	89 e5                	mov    %esp,%ebp
  401d95:	83 ec 28             	sub    $0x28,%esp
	void* ptr;
	uint result = SendMessage( SystemId, System_AllocateGlobalMemory, (void*)&siz, &attr, 
  401d98:	8d 45 fc             	lea    0xfffffffc(%ebp),%eax
  401d9b:	89 44 24 18          	mov    %eax,0x18(%esp)
  401d9f:	c7 44 24 14 00 00 00 	movl   $0x0,0x14(%esp)
  401da6:	00 
  401da7:	8d 45 10             	lea    0x10(%ebp),%eax
  401daa:	89 44 24 10          	mov    %eax,0x10(%esp)
  401dae:	8d 45 0c             	lea    0xc(%ebp),%eax
  401db1:	89 44 24 0c          	mov    %eax,0xc(%esp)
  401db5:	8d 45 08             	lea    0x8(%ebp),%eax
  401db8:	89 44 24 08          	mov    %eax,0x8(%esp)
  401dbc:	c7 44 24 04 0c 20 00 	movl   $0x200c,0x4(%esp)
  401dc3:	00 
  401dc4:	c7 04 24 00 00 00 00 	movl   $0x0,(%esp)
  401dcb:	e8 30 fb ff ff       	call   401900 <_SendMessage>
  401dd0:	89 45 f8             	mov    %eax,0xfffffff8(%ebp)
		&flag, NULL, (void*)&ptr );
	if( result < 0 )
		return NULL;
	return ptr;
  401dd3:	8b 45 fc             	mov    0xfffffffc(%ebp),%eax
}
  401dd6:	c9                   	leave  
  401dd7:	c3                   	ret    

00401dd8 <_SysFreeGlobalMemory>:

void SysFreeGlobalMemory( void* p )
{
  401dd8:	55                   	push   %ebp
  401dd9:	89 e5                	mov    %esp,%ebp
  401ddb:	83 ec 28             	sub    $0x28,%esp
	SendMessage( SystemId, System_FreeGlobalMemory, (void*)&p, NULL, NULL, NULL, NULL );
  401dde:	c7 44 24 18 00 00 00 	movl   $0x0,0x18(%esp)
  401de5:	00 
  401de6:	c7 44 24 14 00 00 00 	movl   $0x0,0x14(%esp)
  401ded:	00 
  401dee:	c7 44 24 10 00 00 00 	movl   $0x0,0x10(%esp)
  401df5:	00 
  401df6:	c7 44 24 0c 00 00 00 	movl   $0x0,0xc(%esp)
  401dfd:	00 
  401dfe:	8d 45 08             	lea    0x8(%ebp),%eax
  401e01:	89 44 24 08          	mov    %eax,0x8(%esp)
  401e05:	c7 44 24 04 0d 20 00 	movl   $0x200d,0x4(%esp)
  401e0c:	00 
  401e0d:	c7 04 24 00 00 00 00 	movl   $0x0,(%esp)
  401e14:	e8 e7 fa ff ff       	call   401900 <_SendMessage>
}
  401e19:	c9                   	leave  
  401e1a:	c3                   	ret    

00401e1b <_SysTerminateThread>:


int SysTerminateThread( uint tid, uint code )
{
  401e1b:	55                   	push   %ebp
  401e1c:	89 e5                	mov    %esp,%ebp
  401e1e:	83 ec 28             	sub    $0x28,%esp
	int result;
	result = SendMessage( SystemId, System_TerminateThread, &tid, &code, NULL, NULL, &code );
  401e21:	8d 45 0c             	lea    0xc(%ebp),%eax
  401e24:	89 44 24 18          	mov    %eax,0x18(%esp)
  401e28:	c7 44 24 14 00 00 00 	movl   $0x0,0x14(%esp)
  401e2f:	00 
  401e30:	c7 44 24 10 00 00 00 	movl   $0x0,0x10(%esp)
  401e37:	00 
  401e38:	8d 45 0c             	lea    0xc(%ebp),%eax
  401e3b:	89 44 24 0c          	mov    %eax,0xc(%esp)
  401e3f:	8d 45 08             	lea    0x8(%ebp),%eax
  401e42:	89 44 24 08          	mov    %eax,0x8(%esp)
  401e46:	c7 44 24 04 02 10 00 	movl   $0x1002,0x4(%esp)
  401e4d:	00 
  401e4e:	c7 04 24 00 00 00 00 	movl   $0x0,(%esp)
  401e55:	e8 a6 fa ff ff       	call   401900 <_SendMessage>
  401e5a:	89 45 fc             	mov    %eax,0xfffffffc(%ebp)
	if( result < 0 )
  401e5d:	83 7d fc 00          	cmpl   $0x0,0xfffffffc(%ebp)
  401e61:	79 08                	jns    401e6b <_SysTerminateThread+0x50>
		return result;
  401e63:	8b 45 fc             	mov    0xfffffffc(%ebp),%eax
  401e66:	89 45 f8             	mov    %eax,0xfffffff8(%ebp)
  401e69:	eb 06                	jmp    401e71 <_SysTerminateThread+0x56>
	return code;
  401e6b:	8b 45 0c             	mov    0xc(%ebp),%eax
  401e6e:	89 45 f8             	mov    %eax,0xfffffff8(%ebp)
}
  401e71:	8b 45 f8             	mov    0xfffffff8(%ebp),%eax
  401e74:	c9                   	leave  
  401e75:	c3                   	ret    

00401e76 <_SysGetCurrentThreadId>:

uint SysGetCurrentThreadId()
{
  401e76:	55                   	push   %ebp
  401e77:	89 e5                	mov    %esp,%ebp
  401e79:	83 ec 38             	sub    $0x38,%esp
	int result;
	uint code;
	ThreadInformation* ti = (ThreadInformation*)GetCurrentThreadInformation();
  401e7c:	e8 8f 0d 00 00       	call   402c10 <_GetCurrentThreadInformation>
  401e81:	89 45 f4             	mov    %eax,0xfffffff4(%ebp)
	if( ti ){
  401e84:	83 7d f4 00          	cmpl   $0x0,0xfffffff4(%ebp)
  401e88:	74 0b                	je     401e95 <_SysGetCurrentThreadId+0x1f>
		return ti->ThreadId;
  401e8a:	8b 45 f4             	mov    0xfffffff4(%ebp),%eax
  401e8d:	8b 40 24             	mov    0x24(%eax),%eax
  401e90:	89 45 f0             	mov    %eax,0xfffffff0(%ebp)
  401e93:	eb 52                	jmp    401ee7 <_SysGetCurrentThreadId+0x71>
	}
	result = SendMessage( SystemId, System_GetCurrentThreadId, NULL, NULL, NULL, NULL, &code );
  401e95:	8d 45 f8             	lea    0xfffffff8(%ebp),%eax
  401e98:	89 44 24 18          	mov    %eax,0x18(%esp)
  401e9c:	c7 44 24 14 00 00 00 	movl   $0x0,0x14(%esp)
  401ea3:	00 
  401ea4:	c7 44 24 10 00 00 00 	movl   $0x0,0x10(%esp)
  401eab:	00 
  401eac:	c7 44 24 0c 00 00 00 	movl   $0x0,0xc(%esp)
  401eb3:	00 
  401eb4:	c7 44 24 08 00 00 00 	movl   $0x0,0x8(%esp)
  401ebb:	00 
  401ebc:	c7 44 24 04 03 10 00 	movl   $0x1003,0x4(%esp)
  401ec3:	00 
  401ec4:	c7 04 24 00 00 00 00 	movl   $0x0,(%esp)
  401ecb:	e8 30 fa ff ff       	call   401900 <_SendMessage>
  401ed0:	89 45 fc             	mov    %eax,0xfffffffc(%ebp)
	if( result < 0 )
  401ed3:	83 7d fc 00          	cmpl   $0x0,0xfffffffc(%ebp)
  401ed7:	79 08                	jns    401ee1 <_SysGetCurrentThreadId+0x6b>
		return result;
  401ed9:	8b 45 fc             	mov    0xfffffffc(%ebp),%eax
  401edc:	89 45 f0             	mov    %eax,0xfffffff0(%ebp)
  401edf:	eb 06                	jmp    401ee7 <_SysGetCurrentThreadId+0x71>
	return code;
  401ee1:	8b 45 f8             	mov    0xfffffff8(%ebp),%eax
  401ee4:	89 45 f0             	mov    %eax,0xfffffff0(%ebp)
}
  401ee7:	8b 45 f0             	mov    0xfffffff0(%ebp),%eax
  401eea:	c9                   	leave  
  401eeb:	c3                   	ret    

00401eec <_SysCreateThread>:

int SysCreateThread( uint sid, size_t proc_addr, size_t stack_limit, size_t stack_base, void* ti )
{
  401eec:	55                   	push   %ebp
  401eed:	89 e5                	mov    %esp,%ebp
  401eef:	83 ec 38             	sub    $0x38,%esp
	int result;
	uint code;
	result = SendMessageEx( SystemId, System_CreateThread, &sid, (void*)&proc_addr, (void*)&stack_limit, 
  401ef2:	8d 45 f8             	lea    0xfffffff8(%ebp),%eax
  401ef5:	89 44 24 28          	mov    %eax,0x28(%esp)
  401ef9:	c7 44 24 24 00 00 00 	movl   $0x0,0x24(%esp)
  401f00:	00 
  401f01:	c7 44 24 20 00 00 00 	movl   $0x0,0x20(%esp)
  401f08:	00 
  401f09:	c7 44 24 1c 00 00 00 	movl   $0x0,0x1c(%esp)
  401f10:	00 
  401f11:	8d 45 18             	lea    0x18(%ebp),%eax
  401f14:	89 44 24 18          	mov    %eax,0x18(%esp)
  401f18:	8d 45 14             	lea    0x14(%ebp),%eax
  401f1b:	89 44 24 14          	mov    %eax,0x14(%esp)
  401f1f:	8d 45 10             	lea    0x10(%ebp),%eax
  401f22:	89 44 24 10          	mov    %eax,0x10(%esp)
  401f26:	8d 45 0c             	lea    0xc(%ebp),%eax
  401f29:	89 44 24 0c          	mov    %eax,0xc(%esp)
  401f2d:	8d 45 08             	lea    0x8(%ebp),%eax
  401f30:	89 44 24 08          	mov    %eax,0x8(%esp)
  401f34:	c7 44 24 04 04 10 00 	movl   $0x1004,0x4(%esp)
  401f3b:	00 
  401f3c:	c7 04 24 00 00 00 00 	movl   $0x0,(%esp)
  401f43:	e8 d9 fa ff ff       	call   401a21 <_SendMessageEx>
  401f48:	89 45 fc             	mov    %eax,0xfffffffc(%ebp)
		(void*)&stack_base, (void*)&ti, NULL, NULL, NULL, &code );
	if( result < 0 )
  401f4b:	83 7d fc 00          	cmpl   $0x0,0xfffffffc(%ebp)
  401f4f:	79 08                	jns    401f59 <_SysCreateThread+0x6d>
		return result;
  401f51:	8b 45 fc             	mov    0xfffffffc(%ebp),%eax
  401f54:	89 45 f4             	mov    %eax,0xfffffff4(%ebp)
  401f57:	eb 06                	jmp    401f5f <_SysCreateThread+0x73>
	return code;
  401f59:	8b 45 f8             	mov    0xfffffff8(%ebp),%eax
  401f5c:	89 45 f4             	mov    %eax,0xfffffff4(%ebp)
}
  401f5f:	8b 45 f4             	mov    0xfffffff4(%ebp),%eax
  401f62:	c9                   	leave  
  401f63:	c3                   	ret    

00401f64 <_SysSleepThread>:

int SysSleepThread( uint ms )
{
  401f64:	55                   	push   %ebp
  401f65:	89 e5                	mov    %esp,%ebp
  401f67:	57                   	push   %edi
  401f68:	56                   	push   %esi
  401f69:	83 ec 58             	sub    $0x58,%esp
	Message msg = {SystemId, 0, System_SleepThread};
  401f6c:	8d 7d b8             	lea    0xffffffb8(%ebp),%edi
  401f6f:	be 00 60 40 00       	mov    $0x406000,%esi
  401f74:	b8 40 00 00 00       	mov    $0x40,%eax
  401f79:	fc                   	cld    
  401f7a:	89 c1                	mov    %eax,%ecx
  401f7c:	c1 e9 02             	shr    $0x2,%ecx
  401f7f:	f3 a5                	repz movsl %ds:(%esi),%es:(%edi)
	msg.Arguments[0] = ms;
  401f81:	8b 45 08             	mov    0x8(%ebp),%eax
  401f84:	89 45 c4             	mov    %eax,0xffffffc4(%ebp)
	int result = Api_Send( &msg, INFINITE );
  401f87:	c7 44 24 04 ff ff ff 	movl   $0xffffffff,0x4(%esp)
  401f8e:	ff 
  401f8f:	8d 45 b8             	lea    0xffffffb8(%ebp),%eax
  401f92:	89 04 24             	mov    %eax,(%esp)
  401f95:	e8 a0 f8 ff ff       	call   40183a <_Api_Send>
  401f9a:	89 45 b4             	mov    %eax,0xffffffb4(%ebp)
	return result;
  401f9d:	8b 45 b4             	mov    0xffffffb4(%ebp),%eax
}
  401fa0:	83 c4 58             	add    $0x58,%esp
  401fa3:	5e                   	pop    %esi
  401fa4:	5f                   	pop    %edi
  401fa5:	5d                   	pop    %ebp
  401fa6:	c3                   	ret    

00401fa7 <_SysWakeupThread>:

int SysWakeupThread( uint tid )
{
  401fa7:	55                   	push   %ebp
  401fa8:	89 e5                	mov    %esp,%ebp
  401faa:	83 ec 28             	sub    $0x28,%esp
	int result;
	uint code;
	result = SendMessage( SystemId, System_WakeupThread, &tid, NULL, NULL, NULL, &code );
  401fad:	8d 45 f8             	lea    0xfffffff8(%ebp),%eax
  401fb0:	89 44 24 18          	mov    %eax,0x18(%esp)
  401fb4:	c7 44 24 14 00 00 00 	movl   $0x0,0x14(%esp)
  401fbb:	00 
  401fbc:	c7 44 24 10 00 00 00 	movl   $0x0,0x10(%esp)
  401fc3:	00 
  401fc4:	c7 44 24 0c 00 00 00 	movl   $0x0,0xc(%esp)
  401fcb:	00 
  401fcc:	8d 45 08             	lea    0x8(%ebp),%eax
  401fcf:	89 44 24 08          	mov    %eax,0x8(%esp)
  401fd3:	c7 44 24 04 06 10 00 	movl   $0x1006,0x4(%esp)
  401fda:	00 
  401fdb:	c7 04 24 00 00 00 00 	movl   $0x0,(%esp)
  401fe2:	e8 19 f9 ff ff       	call   401900 <_SendMessage>
  401fe7:	89 45 fc             	mov    %eax,0xfffffffc(%ebp)
	if( result < 0 )
  401fea:	83 7d fc 00          	cmpl   $0x0,0xfffffffc(%ebp)
  401fee:	79 08                	jns    401ff8 <_SysWakeupThread+0x51>
		return result;
  401ff0:	8b 45 fc             	mov    0xfffffffc(%ebp),%eax
  401ff3:	89 45 f4             	mov    %eax,0xfffffff4(%ebp)
  401ff6:	eb 06                	jmp    401ffe <_SysWakeupThread+0x57>
	return code;
  401ff8:	8b 45 f8             	mov    0xfffffff8(%ebp),%eax
  401ffb:	89 45 f4             	mov    %eax,0xfffffff4(%ebp)
}
  401ffe:	8b 45 f4             	mov    0xfffffff4(%ebp),%eax
  402001:	c9                   	leave  
  402002:	c3                   	ret    

00402003 <_SysResumeThread>:

int SysResumeThread( uint tid )
{
  402003:	55                   	push   %ebp
  402004:	89 e5                	mov    %esp,%ebp
  402006:	83 ec 28             	sub    $0x28,%esp
	int result;
	uint code;
	result = SendMessage( SystemId, System_ResumeThread, &tid, NULL, NULL, NULL, &code );
  402009:	8d 45 f8             	lea    0xfffffff8(%ebp),%eax
  40200c:	89 44 24 18          	mov    %eax,0x18(%esp)
  402010:	c7 44 24 14 00 00 00 	movl   $0x0,0x14(%esp)
  402017:	00 
  402018:	c7 44 24 10 00 00 00 	movl   $0x0,0x10(%esp)
  40201f:	00 
  402020:	c7 44 24 0c 00 00 00 	movl   $0x0,0xc(%esp)
  402027:	00 
  402028:	8d 45 08             	lea    0x8(%ebp),%eax
  40202b:	89 44 24 08          	mov    %eax,0x8(%esp)
  40202f:	c7 44 24 04 07 10 00 	movl   $0x1007,0x4(%esp)
  402036:	00 
  402037:	c7 04 24 00 00 00 00 	movl   $0x0,(%esp)
  40203e:	e8 bd f8 ff ff       	call   401900 <_SendMessage>
  402043:	89 45 fc             	mov    %eax,0xfffffffc(%ebp)
	if( result < 0 )
  402046:	83 7d fc 00          	cmpl   $0x0,0xfffffffc(%ebp)
  40204a:	79 08                	jns    402054 <_SysResumeThread+0x51>
		return result;
  40204c:	8b 45 fc             	mov    0xfffffffc(%ebp),%eax
  40204f:	89 45 f4             	mov    %eax,0xfffffff4(%ebp)
  402052:	eb 06                	jmp    40205a <_SysResumeThread+0x57>
	return code;
  402054:	8b 45 f8             	mov    0xfffffff8(%ebp),%eax
  402057:	89 45 f4             	mov    %eax,0xfffffff4(%ebp)
}
  40205a:	8b 45 f4             	mov    0xfffffff4(%ebp),%eax
  40205d:	c9                   	leave  
  40205e:	c3                   	ret    

0040205f <_SysSuspendThread>:

int SysSuspendThread( uint tid )
{
  40205f:	55                   	push   %ebp
  402060:	89 e5                	mov    %esp,%ebp
  402062:	83 ec 28             	sub    $0x28,%esp
	int result;
	int code;
	result = SendMessage( SystemId, System_SuspendThread, &tid, NULL, NULL, NULL, &code );
  402065:	8d 45 f8             	lea    0xfffffff8(%ebp),%eax
  402068:	89 44 24 18          	mov    %eax,0x18(%esp)
  40206c:	c7 44 24 14 00 00 00 	movl   $0x0,0x14(%esp)
  402073:	00 
  402074:	c7 44 24 10 00 00 00 	movl   $0x0,0x10(%esp)
  40207b:	00 
  40207c:	c7 44 24 0c 00 00 00 	movl   $0x0,0xc(%esp)
  402083:	00 
  402084:	8d 45 08             	lea    0x8(%ebp),%eax
  402087:	89 44 24 08          	mov    %eax,0x8(%esp)
  40208b:	c7 44 24 04 08 10 00 	movl   $0x1008,0x4(%esp)
  402092:	00 
  402093:	c7 04 24 00 00 00 00 	movl   $0x0,(%esp)
  40209a:	e8 61 f8 ff ff       	call   401900 <_SendMessage>
  40209f:	89 45 fc             	mov    %eax,0xfffffffc(%ebp)
	if( result < 0 )
  4020a2:	83 7d fc 00          	cmpl   $0x0,0xfffffffc(%ebp)
  4020a6:	79 08                	jns    4020b0 <_SysSuspendThread+0x51>
		return result;
  4020a8:	8b 45 fc             	mov    0xfffffffc(%ebp),%eax
  4020ab:	89 45 f4             	mov    %eax,0xfffffff4(%ebp)
  4020ae:	eb 06                	jmp    4020b6 <_SysSuspendThread+0x57>
	return code;
  4020b0:	8b 45 f8             	mov    0xfffffff8(%ebp),%eax
  4020b3:	89 45 f4             	mov    %eax,0xfffffff4(%ebp)
}
  4020b6:	8b 45 f4             	mov    0xfffffff4(%ebp),%eax
  4020b9:	c9                   	leave  
  4020ba:	c3                   	ret    

004020bb <_SysJoinThread>:

int SysJoinThread( uint tid, time_t timeout )
{
  4020bb:	55                   	push   %ebp
  4020bc:	89 e5                	mov    %esp,%ebp
  4020be:	83 ec 28             	sub    $0x28,%esp
	int result;
	int code;
	result = SendMessage( SystemId, System_JoinThread, (void*)&tid, (void*)&timeout, NULL, NULL, &code );
  4020c1:	8d 45 f8             	lea    0xfffffff8(%ebp),%eax
  4020c4:	89 44 24 18          	mov    %eax,0x18(%esp)
  4020c8:	c7 44 24 14 00 00 00 	movl   $0x0,0x14(%esp)
  4020cf:	00 
  4020d0:	c7 44 24 10 00 00 00 	movl   $0x0,0x10(%esp)
  4020d7:	00 
  4020d8:	8d 45 0c             	lea    0xc(%ebp),%eax
  4020db:	89 44 24 0c          	mov    %eax,0xc(%esp)
  4020df:	8d 45 08             	lea    0x8(%ebp),%eax
  4020e2:	89 44 24 08          	mov    %eax,0x8(%esp)
  4020e6:	c7 44 24 04 09 10 00 	movl   $0x1009,0x4(%esp)
  4020ed:	00 
  4020ee:	c7 04 24 00 00 00 00 	movl   $0x0,(%esp)
  4020f5:	e8 06 f8 ff ff       	call   401900 <_SendMessage>
  4020fa:	89 45 fc             	mov    %eax,0xfffffffc(%ebp)
	if( result < 0 )
  4020fd:	83 7d fc 00          	cmpl   $0x0,0xfffffffc(%ebp)
  402101:	79 08                	jns    40210b <_SysJoinThread+0x50>
		return result;
  402103:	8b 45 fc             	mov    0xfffffffc(%ebp),%eax
  402106:	89 45 f4             	mov    %eax,0xfffffff4(%ebp)
  402109:	eb 06                	jmp    402111 <_SysJoinThread+0x56>
	return code;
  40210b:	8b 45 f8             	mov    0xfffffff8(%ebp),%eax
  40210e:	89 45 f4             	mov    %eax,0xfffffff4(%ebp)
}
  402111:	8b 45 f4             	mov    0xfffffff4(%ebp),%eax
  402114:	c9                   	leave  
  402115:	c3                   	ret    

00402116 <_SysTerminateSpace>:

int SysTerminateSpace( uint sp )
{
  402116:	55                   	push   %ebp
  402117:	89 e5                	mov    %esp,%ebp
  402119:	83 ec 28             	sub    $0x28,%esp
	int result;
	int code;
	result = SendMessage( SystemId, System_TerminateSpace, &sp, NULL, NULL, NULL, &code );
  40211c:	8d 45 f8             	lea    0xfffffff8(%ebp),%eax
  40211f:	89 44 24 18          	mov    %eax,0x18(%esp)
  402123:	c7 44 24 14 00 00 00 	movl   $0x0,0x14(%esp)
  40212a:	00 
  40212b:	c7 44 24 10 00 00 00 	movl   $0x0,0x10(%esp)
  402132:	00 
  402133:	c7 44 24 0c 00 00 00 	movl   $0x0,0xc(%esp)
  40213a:	00 
  40213b:	8d 45 08             	lea    0x8(%ebp),%eax
  40213e:	89 44 24 08          	mov    %eax,0x8(%esp)
  402142:	c7 44 24 04 02 20 00 	movl   $0x2002,0x4(%esp)
  402149:	00 
  40214a:	c7 04 24 00 00 00 00 	movl   $0x0,(%esp)
  402151:	e8 aa f7 ff ff       	call   401900 <_SendMessage>
  402156:	89 45 fc             	mov    %eax,0xfffffffc(%ebp)
	if( result < 0 )
  402159:	83 7d fc 00          	cmpl   $0x0,0xfffffffc(%ebp)
  40215d:	79 08                	jns    402167 <_SysTerminateSpace+0x51>
		return result;
  40215f:	8b 45 fc             	mov    0xfffffffc(%ebp),%eax
  402162:	89 45 f4             	mov    %eax,0xfffffff4(%ebp)
  402165:	eb 06                	jmp    40216d <_SysTerminateSpace+0x57>
	return code;
  402167:	8b 45 f8             	mov    0xfffffff8(%ebp),%eax
  40216a:	89 45 f4             	mov    %eax,0xfffffff4(%ebp)
}
  40216d:	8b 45 f4             	mov    0xfffffff4(%ebp),%eax
  402170:	c9                   	leave  
  402171:	c3                   	ret    

00402172 <_SysGetCurrentSpaceId>:

uint SysGetCurrentSpaceId( )
{
  402172:	55                   	push   %ebp
  402173:	89 e5                	mov    %esp,%ebp
  402175:	83 ec 38             	sub    $0x38,%esp
	int result;
	uint code;
	static uint sid = 0;
	ThreadInformation* ti = (ThreadInformation*)GetCurrentThreadInformation();
  402178:	e8 93 0a 00 00       	call   402c10 <_GetCurrentThreadInformation>
  40217d:	89 45 f4             	mov    %eax,0xfffffff4(%ebp)
	if( ti ){
  402180:	83 7d f4 00          	cmpl   $0x0,0xfffffff4(%ebp)
  402184:	74 0b                	je     402191 <_SysGetCurrentSpaceId+0x1f>
		return ti->SpaceId;
  402186:	8b 45 f4             	mov    0xfffffff4(%ebp),%eax
  402189:	8b 40 40             	mov    0x40(%eax),%eax
  40218c:	89 45 f0             	mov    %eax,0xfffffff0(%ebp)
  40218f:	eb 6d                	jmp    4021fe <_SysGetCurrentSpaceId+0x8c>
	}
	if( sid )
  402191:	83 3d 80 80 40 00 00 	cmpl   $0x0,0x408080
  402198:	74 0a                	je     4021a4 <_SysGetCurrentSpaceId+0x32>
		return sid;
  40219a:	a1 80 80 40 00       	mov    0x408080,%eax
  40219f:	89 45 f0             	mov    %eax,0xfffffff0(%ebp)
  4021a2:	eb 5a                	jmp    4021fe <_SysGetCurrentSpaceId+0x8c>
	result = SendMessage( SystemId, System_GetCurrentSpaceId, NULL, NULL, NULL, NULL, &code );
  4021a4:	8d 45 f8             	lea    0xfffffff8(%ebp),%eax
  4021a7:	89 44 24 18          	mov    %eax,0x18(%esp)
  4021ab:	c7 44 24 14 00 00 00 	movl   $0x0,0x14(%esp)
  4021b2:	00 
  4021b3:	c7 44 24 10 00 00 00 	movl   $0x0,0x10(%esp)
  4021ba:	00 
  4021bb:	c7 44 24 0c 00 00 00 	movl   $0x0,0xc(%esp)
  4021c2:	00 
  4021c3:	c7 44 24 08 00 00 00 	movl   $0x0,0x8(%esp)
  4021ca:	00 
  4021cb:	c7 44 24 04 03 20 00 	movl   $0x2003,0x4(%esp)
  4021d2:	00 
  4021d3:	c7 04 24 00 00 00 00 	movl   $0x0,(%esp)
  4021da:	e8 21 f7 ff ff       	call   401900 <_SendMessage>
  4021df:	89 45 fc             	mov    %eax,0xfffffffc(%ebp)
	if( result < 0 )
  4021e2:	83 7d fc 00          	cmpl   $0x0,0xfffffffc(%ebp)
  4021e6:	79 08                	jns    4021f0 <_SysGetCurrentSpaceId+0x7e>
		return result;
  4021e8:	8b 45 fc             	mov    0xfffffffc(%ebp),%eax
  4021eb:	89 45 f0             	mov    %eax,0xfffffff0(%ebp)
  4021ee:	eb 0e                	jmp    4021fe <_SysGetCurrentSpaceId+0x8c>
	sid = code;
  4021f0:	8b 45 f8             	mov    0xfffffff8(%ebp),%eax
  4021f3:	a3 80 80 40 00       	mov    %eax,0x408080
	return code;
  4021f8:	8b 45 f8             	mov    0xfffffff8(%ebp),%eax
  4021fb:	89 45 f0             	mov    %eax,0xfffffff0(%ebp)
}
  4021fe:	8b 45 f0             	mov    0xfffffff0(%ebp),%eax
  402201:	c9                   	leave  
  402202:	c3                   	ret    

00402203 <_SysCreateSpace>:

int SysCreateSpace( uint parent )
{
  402203:	55                   	push   %ebp
  402204:	89 e5                	mov    %esp,%ebp
  402206:	83 ec 28             	sub    $0x28,%esp
	int result;
	int code;
	result = SendMessage( SystemId, System_CreateSpace, &parent, NULL, NULL, NULL, &code );
  402209:	8d 45 f8             	lea    0xfffffff8(%ebp),%eax
  40220c:	89 44 24 18          	mov    %eax,0x18(%esp)
  402210:	c7 44 24 14 00 00 00 	movl   $0x0,0x14(%esp)
  402217:	00 
  402218:	c7 44 24 10 00 00 00 	movl   $0x0,0x10(%esp)
  40221f:	00 
  402220:	c7 44 24 0c 00 00 00 	movl   $0x0,0xc(%esp)
  402227:	00 
  402228:	8d 45 08             	lea    0x8(%ebp),%eax
  40222b:	89 44 24 08          	mov    %eax,0x8(%esp)
  40222f:	c7 44 24 04 04 20 00 	movl   $0x2004,0x4(%esp)
  402236:	00 
  402237:	c7 04 24 00 00 00 00 	movl   $0x0,(%esp)
  40223e:	e8 bd f6 ff ff       	call   401900 <_SendMessage>
  402243:	89 45 fc             	mov    %eax,0xfffffffc(%ebp)
	if( result < 0 )
  402246:	83 7d fc 00          	cmpl   $0x0,0xfffffffc(%ebp)
  40224a:	79 08                	jns    402254 <_SysCreateSpace+0x51>
		return result;
  40224c:	8b 45 fc             	mov    0xfffffffc(%ebp),%eax
  40224f:	89 45 f4             	mov    %eax,0xfffffff4(%ebp)
  402252:	eb 06                	jmp    40225a <_SysCreateSpace+0x57>
	return code;
  402254:	8b 45 f8             	mov    0xfffffff8(%ebp),%eax
  402257:	89 45 f4             	mov    %eax,0xfffffff4(%ebp)
}
  40225a:	8b 45 f4             	mov    0xfffffff4(%ebp),%eax
  40225d:	c9                   	leave  
  40225e:	c3                   	ret    

0040225f <_SysDestroySpace>:

int SysDestroySpace( uint sp, uint code )
{
  40225f:	55                   	push   %ebp
  402260:	89 e5                	mov    %esp,%ebp
  402262:	83 ec 28             	sub    $0x28,%esp
	int result;
	result = SendMessage( SystemId, System_DestroySpace, &sp, &code, NULL, NULL, &code );
  402265:	8d 45 0c             	lea    0xc(%ebp),%eax
  402268:	89 44 24 18          	mov    %eax,0x18(%esp)
  40226c:	c7 44 24 14 00 00 00 	movl   $0x0,0x14(%esp)
  402273:	00 
  402274:	c7 44 24 10 00 00 00 	movl   $0x0,0x10(%esp)
  40227b:	00 
  40227c:	8d 45 0c             	lea    0xc(%ebp),%eax
  40227f:	89 44 24 0c          	mov    %eax,0xc(%esp)
  402283:	8d 45 08             	lea    0x8(%ebp),%eax
  402286:	89 44 24 08          	mov    %eax,0x8(%esp)
  40228a:	c7 44 24 04 05 20 00 	movl   $0x2005,0x4(%esp)
  402291:	00 
  402292:	c7 04 24 00 00 00 00 	movl   $0x0,(%esp)
  402299:	e8 62 f6 ff ff       	call   401900 <_SendMessage>
  40229e:	89 45 fc             	mov    %eax,0xfffffffc(%ebp)
	if( result < 0 )
  4022a1:	83 7d fc 00          	cmpl   $0x0,0xfffffffc(%ebp)
  4022a5:	79 08                	jns    4022af <_SysDestroySpace+0x50>
		return result;
  4022a7:	8b 45 fc             	mov    0xfffffffc(%ebp),%eax
  4022aa:	89 45 f8             	mov    %eax,0xfffffff8(%ebp)
  4022ad:	eb 06                	jmp    4022b5 <_SysDestroySpace+0x56>
	return code;
  4022af:	8b 45 0c             	mov    0xc(%ebp),%eax
  4022b2:	89 45 f8             	mov    %eax,0xfffffff8(%ebp)
}
  4022b5:	8b 45 f8             	mov    0xfffffff8(%ebp),%eax
  4022b8:	c9                   	leave  
  4022b9:	c3                   	ret    

004022ba <_SysAllocateMemory>:

void* SysAllocateMemory( uint sp, uint siz, uint attr, uint flag )
{
  4022ba:	55                   	push   %ebp
  4022bb:	89 e5                	mov    %esp,%ebp
  4022bd:	83 ec 28             	sub    $0x28,%esp
	int result;
	void* ptr;
	result = SendMessage( SystemId, System_AllocateMemory, &sp, &siz, &attr, &flag, (void*)&ptr );
  4022c0:	8d 45 f8             	lea    0xfffffff8(%ebp),%eax
  4022c3:	89 44 24 18          	mov    %eax,0x18(%esp)
  4022c7:	8d 45 14             	lea    0x14(%ebp),%eax
  4022ca:	89 44 24 14          	mov    %eax,0x14(%esp)
  4022ce:	8d 45 10             	lea    0x10(%ebp),%eax
  4022d1:	89 44 24 10          	mov    %eax,0x10(%esp)
  4022d5:	8d 45 0c             	lea    0xc(%ebp),%eax
  4022d8:	89 44 24 0c          	mov    %eax,0xc(%esp)
  4022dc:	8d 45 08             	lea    0x8(%ebp),%eax
  4022df:	89 44 24 08          	mov    %eax,0x8(%esp)
  4022e3:	c7 44 24 04 06 20 00 	movl   $0x2006,0x4(%esp)
  4022ea:	00 
  4022eb:	c7 04 24 00 00 00 00 	movl   $0x0,(%esp)
  4022f2:	e8 09 f6 ff ff       	call   401900 <_SendMessage>
  4022f7:	89 45 fc             	mov    %eax,0xfffffffc(%ebp)
	if( result < 0 )
  4022fa:	83 7d fc 00          	cmpl   $0x0,0xfffffffc(%ebp)
  4022fe:	79 09                	jns    402309 <_SysAllocateMemory+0x4f>
		return NULL;
  402300:	c7 45 f4 00 00 00 00 	movl   $0x0,0xfffffff4(%ebp)
  402307:	eb 06                	jmp    40230f <_SysAllocateMemory+0x55>
	return ptr;
  402309:	8b 45 f8             	mov    0xfffffff8(%ebp),%eax
  40230c:	89 45 f4             	mov    %eax,0xfffffff4(%ebp)
}
  40230f:	8b 45 f4             	mov    0xfffffff4(%ebp),%eax
  402312:	c9                   	leave  
  402313:	c3                   	ret    

00402314 <_SysAllocateMemoryAddress>:

void* SysAllocateMemoryAddress( uint sp, size_t addr, uint siz, uint attr, uint flag )
{
  402314:	55                   	push   %ebp
  402315:	89 e5                	mov    %esp,%ebp
  402317:	83 ec 38             	sub    $0x38,%esp
	int result;
	void* ptr;
	result = SendMessageEx( SystemId, System_AllocateAddress, (void*)&sp, (void*)&addr, (void*)&siz, (void*)&attr, (void*)&flag, 
  40231a:	8d 45 f8             	lea    0xfffffff8(%ebp),%eax
  40231d:	89 44 24 28          	mov    %eax,0x28(%esp)
  402321:	c7 44 24 24 00 00 00 	movl   $0x0,0x24(%esp)
  402328:	00 
  402329:	c7 44 24 20 00 00 00 	movl   $0x0,0x20(%esp)
  402330:	00 
  402331:	c7 44 24 1c 00 00 00 	movl   $0x0,0x1c(%esp)
  402338:	00 
  402339:	8d 45 18             	lea    0x18(%ebp),%eax
  40233c:	89 44 24 18          	mov    %eax,0x18(%esp)
  402340:	8d 45 14             	lea    0x14(%ebp),%eax
  402343:	89 44 24 14          	mov    %eax,0x14(%esp)
  402347:	8d 45 10             	lea    0x10(%ebp),%eax
  40234a:	89 44 24 10          	mov    %eax,0x10(%esp)
  40234e:	8d 45 0c             	lea    0xc(%ebp),%eax
  402351:	89 44 24 0c          	mov    %eax,0xc(%esp)
  402355:	8d 45 08             	lea    0x8(%ebp),%eax
  402358:	89 44 24 08          	mov    %eax,0x8(%esp)
  40235c:	c7 44 24 04 12 20 00 	movl   $0x2012,0x4(%esp)
  402363:	00 
  402364:	c7 04 24 00 00 00 00 	movl   $0x0,(%esp)
  40236b:	e8 b1 f6 ff ff       	call   401a21 <_SendMessageEx>
  402370:	89 45 fc             	mov    %eax,0xfffffffc(%ebp)
		NULL, NULL, NULL, (void*)&ptr );
	if( result < 0 )
  402373:	83 7d fc 00          	cmpl   $0x0,0xfffffffc(%ebp)
  402377:	79 09                	jns    402382 <_SysAllocateMemoryAddress+0x6e>
		return NULL;
  402379:	c7 45 f4 00 00 00 00 	movl   $0x0,0xfffffff4(%ebp)
  402380:	eb 06                	jmp    402388 <_SysAllocateMemoryAddress+0x74>
	return ptr;
  402382:	8b 45 f8             	mov    0xfffffff8(%ebp),%eax
  402385:	89 45 f4             	mov    %eax,0xfffffff4(%ebp)
}
  402388:	8b 45 f4             	mov    0xfffffff4(%ebp),%eax
  40238b:	c9                   	leave  
  40238c:	c3                   	ret    

0040238d <_SysFreeMemory>:

void SysFreeMemory( uint sp, void* ptr )
{
  40238d:	55                   	push   %ebp
  40238e:	89 e5                	mov    %esp,%ebp
  402390:	83 ec 28             	sub    $0x28,%esp
	SendMessage( SystemId, System_FreeMemory, &sp, (void*)&ptr, NULL, NULL, NULL );
  402393:	c7 44 24 18 00 00 00 	movl   $0x0,0x18(%esp)
  40239a:	00 
  40239b:	c7 44 24 14 00 00 00 	movl   $0x0,0x14(%esp)
  4023a2:	00 
  4023a3:	c7 44 24 10 00 00 00 	movl   $0x0,0x10(%esp)
  4023aa:	00 
  4023ab:	8d 45 0c             	lea    0xc(%ebp),%eax
  4023ae:	89 44 24 0c          	mov    %eax,0xc(%esp)
  4023b2:	8d 45 08             	lea    0x8(%ebp),%eax
  4023b5:	89 44 24 08          	mov    %eax,0x8(%esp)
  4023b9:	c7 44 24 04 07 20 00 	movl   $0x2007,0x4(%esp)
  4023c0:	00 
  4023c1:	c7 04 24 00 00 00 00 	movl   $0x0,(%esp)
  4023c8:	e8 33 f5 ff ff       	call   401900 <_SendMessage>
}
  4023cd:	c9                   	leave  
  4023ce:	c3                   	ret    

004023cf <_SysQueryMemory>:

int SysQueryMemory( uint sp, uint addr, size_t *phys_addr, uint* attr )
{
  4023cf:	55                   	push   %ebp
  4023d0:	89 e5                	mov    %esp,%ebp
  4023d2:	83 ec 28             	sub    $0x28,%esp
	int result;
	int code;
	result = SendMessage( SystemId, System_QueryMemory, &sp, &addr, (void*)phys_addr, (void*)attr, &code );
  4023d5:	8d 45 f8             	lea    0xfffffff8(%ebp),%eax
  4023d8:	89 44 24 18          	mov    %eax,0x18(%esp)
  4023dc:	8b 45 14             	mov    0x14(%ebp),%eax
  4023df:	89 44 24 14          	mov    %eax,0x14(%esp)
  4023e3:	8b 45 10             	mov    0x10(%ebp),%eax
  4023e6:	89 44 24 10          	mov    %eax,0x10(%esp)
  4023ea:	8d 45 0c             	lea    0xc(%ebp),%eax
  4023ed:	89 44 24 0c          	mov    %eax,0xc(%esp)
  4023f1:	8d 45 08             	lea    0x8(%ebp),%eax
  4023f4:	89 44 24 08          	mov    %eax,0x8(%esp)
  4023f8:	c7 44 24 04 0a 20 00 	movl   $0x200a,0x4(%esp)
  4023ff:	00 
  402400:	c7 04 24 00 00 00 00 	movl   $0x0,(%esp)
  402407:	e8 f4 f4 ff ff       	call   401900 <_SendMessage>
  40240c:	89 45 fc             	mov    %eax,0xfffffffc(%ebp)
	if( result < 0 )
  40240f:	83 7d fc 00          	cmpl   $0x0,0xfffffffc(%ebp)
  402413:	79 08                	jns    40241d <_SysQueryMemory+0x4e>
		return result;
  402415:	8b 45 fc             	mov    0xfffffffc(%ebp),%eax
  402418:	89 45 f4             	mov    %eax,0xfffffff4(%ebp)
  40241b:	eb 06                	jmp    402423 <_SysQueryMemory+0x54>
	return code;
  40241d:	8b 45 f8             	mov    0xfffffff8(%ebp),%eax
  402420:	89 45 f4             	mov    %eax,0xfffffff4(%ebp)
}
  402423:	8b 45 f4             	mov    0xfffffff4(%ebp),%eax
  402426:	c9                   	leave  
  402427:	c3                   	ret    

00402428 <_SysAcquirePhysicalPages>:

int SysAcquirePhysicalPages( uint sp, size_t addr, size_t siz )
{
  402428:	55                   	push   %ebp
  402429:	89 e5                	mov    %esp,%ebp
  40242b:	83 ec 28             	sub    $0x28,%esp
	int result;
	int code;
	result = SendMessage( SystemId, System_AcquirePhysicalPages, (void*)&siz, (void*)&addr, (void*)&siz, NULL, &code );
  40242e:	8d 45 f8             	lea    0xfffffff8(%ebp),%eax
  402431:	89 44 24 18          	mov    %eax,0x18(%esp)
  402435:	c7 44 24 14 00 00 00 	movl   $0x0,0x14(%esp)
  40243c:	00 
  40243d:	8d 45 10             	lea    0x10(%ebp),%eax
  402440:	89 44 24 10          	mov    %eax,0x10(%esp)
  402444:	8d 45 0c             	lea    0xc(%ebp),%eax
  402447:	89 44 24 0c          	mov    %eax,0xc(%esp)
  40244b:	8d 45 10             	lea    0x10(%ebp),%eax
  40244e:	89 44 24 08          	mov    %eax,0x8(%esp)
  402452:	c7 44 24 04 0e 20 00 	movl   $0x200e,0x4(%esp)
  402459:	00 
  40245a:	c7 04 24 00 00 00 00 	movl   $0x0,(%esp)
  402461:	e8 9a f4 ff ff       	call   401900 <_SendMessage>
  402466:	89 45 fc             	mov    %eax,0xfffffffc(%ebp)
	if( result < 0 )
  402469:	83 7d fc 00          	cmpl   $0x0,0xfffffffc(%ebp)
  40246d:	79 08                	jns    402477 <_SysAcquirePhysicalPages+0x4f>
		return result;
  40246f:	8b 45 fc             	mov    0xfffffffc(%ebp),%eax
  402472:	89 45 f4             	mov    %eax,0xfffffff4(%ebp)
  402475:	eb 06                	jmp    40247d <_SysAcquirePhysicalPages+0x55>
	return code;
  402477:	8b 45 f8             	mov    0xfffffff8(%ebp),%eax
  40247a:	89 45 f4             	mov    %eax,0xfffffff4(%ebp)
}
  40247d:	8b 45 f4             	mov    0xfffffff4(%ebp),%eax
  402480:	c9                   	leave  
  402481:	c3                   	ret    

00402482 <_SysReleasePhysicalPages>:

int SysReleasePhysicalPages( uint sp, size_t addr, size_t siz )
{
  402482:	55                   	push   %ebp
  402483:	89 e5                	mov    %esp,%ebp
  402485:	83 ec 28             	sub    $0x28,%esp
	int result;
	int code;
	result = SendMessage( SystemId, System_ReleasePhysicalPages, (void*)&siz, (void*)&addr, (void*)&siz, NULL, &code );
  402488:	8d 45 f8             	lea    0xfffffff8(%ebp),%eax
  40248b:	89 44 24 18          	mov    %eax,0x18(%esp)
  40248f:	c7 44 24 14 00 00 00 	movl   $0x0,0x14(%esp)
  402496:	00 
  402497:	8d 45 10             	lea    0x10(%ebp),%eax
  40249a:	89 44 24 10          	mov    %eax,0x10(%esp)
  40249e:	8d 45 0c             	lea    0xc(%ebp),%eax
  4024a1:	89 44 24 0c          	mov    %eax,0xc(%esp)
  4024a5:	8d 45 10             	lea    0x10(%ebp),%eax
  4024a8:	89 44 24 08          	mov    %eax,0x8(%esp)
  4024ac:	c7 44 24 04 0f 20 00 	movl   $0x200f,0x4(%esp)
  4024b3:	00 
  4024b4:	c7 04 24 00 00 00 00 	movl   $0x0,(%esp)
  4024bb:	e8 40 f4 ff ff       	call   401900 <_SendMessage>
  4024c0:	89 45 fc             	mov    %eax,0xfffffffc(%ebp)
	if( result < 0 )
  4024c3:	83 7d fc 00          	cmpl   $0x0,0xfffffffc(%ebp)
  4024c7:	79 08                	jns    4024d1 <_SysReleasePhysicalPages+0x4f>
		return result;
  4024c9:	8b 45 fc             	mov    0xfffffffc(%ebp),%eax
  4024cc:	89 45 f4             	mov    %eax,0xfffffff4(%ebp)
  4024cf:	eb 06                	jmp    4024d7 <_SysReleasePhysicalPages+0x55>
	return code;
  4024d1:	8b 45 f8             	mov    0xfffffff8(%ebp),%eax
  4024d4:	89 45 f4             	mov    %eax,0xfffffff4(%ebp)
}
  4024d7:	8b 45 f4             	mov    0xfffffff4(%ebp),%eax
  4024da:	c9                   	leave  
  4024db:	c3                   	ret    

004024dc <_SysMapMemory>:

int SysMapMemory( uint sp, size_t addr, size_t siz, size_t phys_addr, uint attr, uint flag )
{
  4024dc:	55                   	push   %ebp
  4024dd:	89 e5                	mov    %esp,%ebp
  4024df:	83 ec 38             	sub    $0x38,%esp
	int result;
	int code;
	result = SendMessageEx( SystemId, System_MapMemory, (void*)&sp, (void*)&addr, (void*)&siz, (void*)&phys_addr, (void*)&attr, 
  4024e2:	8d 45 f8             	lea    0xfffffff8(%ebp),%eax
  4024e5:	89 44 24 28          	mov    %eax,0x28(%esp)
  4024e9:	c7 44 24 24 00 00 00 	movl   $0x0,0x24(%esp)
  4024f0:	00 
  4024f1:	c7 44 24 20 00 00 00 	movl   $0x0,0x20(%esp)
  4024f8:	00 
  4024f9:	8d 45 1c             	lea    0x1c(%ebp),%eax
  4024fc:	89 44 24 1c          	mov    %eax,0x1c(%esp)
  402500:	8d 45 18             	lea    0x18(%ebp),%eax
  402503:	89 44 24 18          	mov    %eax,0x18(%esp)
  402507:	8d 45 14             	lea    0x14(%ebp),%eax
  40250a:	89 44 24 14          	mov    %eax,0x14(%esp)
  40250e:	8d 45 10             	lea    0x10(%ebp),%eax
  402511:	89 44 24 10          	mov    %eax,0x10(%esp)
  402515:	8d 45 0c             	lea    0xc(%ebp),%eax
  402518:	89 44 24 0c          	mov    %eax,0xc(%esp)
  40251c:	8d 45 08             	lea    0x8(%ebp),%eax
  40251f:	89 44 24 08          	mov    %eax,0x8(%esp)
  402523:	c7 44 24 04 10 20 00 	movl   $0x2010,0x4(%esp)
  40252a:	00 
  40252b:	c7 04 24 00 00 00 00 	movl   $0x0,(%esp)
  402532:	e8 ea f4 ff ff       	call   401a21 <_SendMessageEx>
  402537:	89 45 fc             	mov    %eax,0xfffffffc(%ebp)
		(void*)&flag, NULL, NULL, &code );
	if( result < 0 )
  40253a:	83 7d fc 00          	cmpl   $0x0,0xfffffffc(%ebp)
  40253e:	79 08                	jns    402548 <_SysMapMemory+0x6c>
		return result;
  402540:	8b 45 fc             	mov    0xfffffffc(%ebp),%eax
  402543:	89 45 f4             	mov    %eax,0xfffffff4(%ebp)
  402546:	eb 06                	jmp    40254e <_SysMapMemory+0x72>
	return code;
  402548:	8b 45 f8             	mov    0xfffffff8(%ebp),%eax
  40254b:	89 45 f4             	mov    %eax,0xfffffff4(%ebp)
}
  40254e:	8b 45 f4             	mov    0xfffffff4(%ebp),%eax
  402551:	c9                   	leave  
  402552:	c3                   	ret    

00402553 <_SysSwapMemory>:

int SysSwapMemory( uint dest_sp, size_t dest_addr, size_t src_addr, size_t siz, uint flag )
{
  402553:	55                   	push   %ebp
  402554:	89 e5                	mov    %esp,%ebp
  402556:	83 ec 38             	sub    $0x38,%esp
	int result;
	int code;
	result = SendMessageEx( SystemId, System_SwapMemory, (void*)&dest_sp, (void*)&dest_addr, (void*)&src_addr, 
  402559:	8d 45 f8             	lea    0xfffffff8(%ebp),%eax
  40255c:	89 44 24 28          	mov    %eax,0x28(%esp)
  402560:	c7 44 24 24 00 00 00 	movl   $0x0,0x24(%esp)
  402567:	00 
  402568:	c7 44 24 20 00 00 00 	movl   $0x0,0x20(%esp)
  40256f:	00 
  402570:	c7 44 24 1c 00 00 00 	movl   $0x0,0x1c(%esp)
  402577:	00 
  402578:	8d 45 18             	lea    0x18(%ebp),%eax
  40257b:	89 44 24 18          	mov    %eax,0x18(%esp)
  40257f:	8d 45 14             	lea    0x14(%ebp),%eax
  402582:	89 44 24 14          	mov    %eax,0x14(%esp)
  402586:	8d 45 10             	lea    0x10(%ebp),%eax
  402589:	89 44 24 10          	mov    %eax,0x10(%esp)
  40258d:	8d 45 0c             	lea    0xc(%ebp),%eax
  402590:	89 44 24 0c          	mov    %eax,0xc(%esp)
  402594:	8d 45 08             	lea    0x8(%ebp),%eax
  402597:	89 44 24 08          	mov    %eax,0x8(%esp)
  40259b:	c7 44 24 04 11 20 00 	movl   $0x2011,0x4(%esp)
  4025a2:	00 
  4025a3:	c7 04 24 00 00 00 00 	movl   $0x0,(%esp)
  4025aa:	e8 72 f4 ff ff       	call   401a21 <_SendMessageEx>
  4025af:	89 45 fc             	mov    %eax,0xfffffffc(%ebp)
		(void*)&siz, (void*)&flag, NULL, NULL, NULL, &code );
	if( result < 0 )
  4025b2:	83 7d fc 00          	cmpl   $0x0,0xfffffffc(%ebp)
  4025b6:	79 08                	jns    4025c0 <_SysSwapMemory+0x6d>
		return result;
  4025b8:	8b 45 fc             	mov    0xfffffffc(%ebp),%eax
  4025bb:	89 45 f4             	mov    %eax,0xfffffff4(%ebp)
  4025be:	eb 06                	jmp    4025c6 <_SysSwapMemory+0x73>
	return code;
  4025c0:	8b 45 f8             	mov    0xfffffff8(%ebp),%eax
  4025c3:	89 45 f4             	mov    %eax,0xfffffff4(%ebp)
}
  4025c6:	8b 45 f4             	mov    0xfffffff4(%ebp),%eax
  4025c9:	c9                   	leave  
  4025ca:	c3                   	ret    

004025cb <_SysDuplicateMemory>:


int SysDuplicateMemory( uint dest_sp, size_t dest_addr, size_t src_addr, size_t siz )
{
  4025cb:	55                   	push   %ebp
  4025cc:	89 e5                	mov    %esp,%ebp
  4025ce:	83 ec 28             	sub    $0x28,%esp
	int result;
	int code;
	result = SendMessage( SystemId, System_DuplicateMemory, (void*)&dest_sp, (void*)&dest_addr, (void*)&src_addr, 
  4025d1:	8d 45 f8             	lea    0xfffffff8(%ebp),%eax
  4025d4:	89 44 24 18          	mov    %eax,0x18(%esp)
  4025d8:	8d 45 14             	lea    0x14(%ebp),%eax
  4025db:	89 44 24 14          	mov    %eax,0x14(%esp)
  4025df:	8d 45 10             	lea    0x10(%ebp),%eax
  4025e2:	89 44 24 10          	mov    %eax,0x10(%esp)
  4025e6:	8d 45 0c             	lea    0xc(%ebp),%eax
  4025e9:	89 44 24 0c          	mov    %eax,0xc(%esp)
  4025ed:	8d 45 08             	lea    0x8(%ebp),%eax
  4025f0:	89 44 24 08          	mov    %eax,0x8(%esp)
  4025f4:	c7 44 24 04 13 20 00 	movl   $0x2013,0x4(%esp)
  4025fb:	00 
  4025fc:	c7 04 24 00 00 00 00 	movl   $0x0,(%esp)
  402603:	e8 f8 f2 ff ff       	call   401900 <_SendMessage>
  402608:	89 45 fc             	mov    %eax,0xfffffffc(%ebp)
		(void*)&siz, (void*)&code );
	if( result < 0 )
  40260b:	83 7d fc 00          	cmpl   $0x0,0xfffffffc(%ebp)
  40260f:	79 08                	jns    402619 <_SysDuplicateMemory+0x4e>
		return result;
  402611:	8b 45 fc             	mov    0xfffffffc(%ebp),%eax
  402614:	89 45 f4             	mov    %eax,0xfffffff4(%ebp)
  402617:	eb 06                	jmp    40261f <_SysDuplicateMemory+0x54>
	return code;
  402619:	8b 45 f8             	mov    0xfffffff8(%ebp),%eax
  40261c:	89 45 f4             	mov    %eax,0xfffffff4(%ebp)
}
  40261f:	8b 45 f4             	mov    0xfffffff4(%ebp),%eax
  402622:	c9                   	leave  
  402623:	c3                   	ret    

00402624 <_SysQueryAddress>:


int SysQueryAddress( uint dest_sp, size_t dest_addr, size_t *rbeg, size_t*rend, uint *attr, uint* flag )
{
  402624:	55                   	push   %ebp
  402625:	89 e5                	mov    %esp,%ebp
  402627:	83 ec 38             	sub    $0x38,%esp
	int result;
	int code;
	result = SendMessageEx( SystemId, System_QueryAddress, (void*)&dest_sp, (void*)&dest_addr, (void*)rbeg, 
  40262a:	8d 45 f8             	lea    0xfffffff8(%ebp),%eax
  40262d:	89 44 24 28          	mov    %eax,0x28(%esp)
  402631:	c7 44 24 24 00 00 00 	movl   $0x0,0x24(%esp)
  402638:	00 
  402639:	c7 44 24 20 00 00 00 	movl   $0x0,0x20(%esp)
  402640:	00 
  402641:	8b 45 1c             	mov    0x1c(%ebp),%eax
  402644:	89 44 24 1c          	mov    %eax,0x1c(%esp)
  402648:	8b 45 18             	mov    0x18(%ebp),%eax
  40264b:	89 44 24 18          	mov    %eax,0x18(%esp)
  40264f:	8b 45 14             	mov    0x14(%ebp),%eax
  402652:	89 44 24 14          	mov    %eax,0x14(%esp)
  402656:	8b 45 10             	mov    0x10(%ebp),%eax
  402659:	89 44 24 10          	mov    %eax,0x10(%esp)
  40265d:	8d 45 0c             	lea    0xc(%ebp),%eax
  402660:	89 44 24 0c          	mov    %eax,0xc(%esp)
  402664:	8d 45 08             	lea    0x8(%ebp),%eax
  402667:	89 44 24 08          	mov    %eax,0x8(%esp)
  40266b:	c7 44 24 04 14 20 00 	movl   $0x2014,0x4(%esp)
  402672:	00 
  402673:	c7 04 24 00 00 00 00 	movl   $0x0,(%esp)
  40267a:	e8 a2 f3 ff ff       	call   401a21 <_SendMessageEx>
  40267f:	89 45 fc             	mov    %eax,0xfffffffc(%ebp)
		(void*)rend, (void*)attr, (void*)flag, NULL, NULL, &code );
	if( result < 0 )
  402682:	83 7d fc 00          	cmpl   $0x0,0xfffffffc(%ebp)
  402686:	79 08                	jns    402690 <_SysQueryAddress+0x6c>
		return result;
  402688:	8b 45 fc             	mov    0xfffffffc(%ebp),%eax
  40268b:	89 45 f4             	mov    %eax,0xfffffff4(%ebp)
  40268e:	eb 06                	jmp    402696 <_SysQueryAddress+0x72>
	return code;
  402690:	8b 45 f8             	mov    0xfffffff8(%ebp),%eax
  402693:	89 45 f4             	mov    %eax,0xfffffff4(%ebp)
}
  402696:	8b 45 f4             	mov    0xfffffff4(%ebp),%eax
  402699:	c9                   	leave  
  40269a:	c3                   	ret    
  40269b:	90                   	nop    
  40269c:	90                   	nop    
  40269d:	90                   	nop    
  40269e:	90                   	nop    
  40269f:	90                   	nop    

004026a0 <__GetTickCount>:
#include <api.h>


uint _GetTickCount()
{
  4026a0:	55                   	push   %ebp
  4026a1:	89 e5                	mov    %esp,%ebp
	return 0;
  4026a3:	b8 00 00 00 00       	mov    $0x0,%eax
}
  4026a8:	5d                   	pop    %ebp
  4026a9:	c3                   	ret    
  4026aa:	90                   	nop    
  4026ab:	90                   	nop    
  4026ac:	90                   	nop    
  4026ad:	90                   	nop    
  4026ae:	90                   	nop    
  4026af:	90                   	nop    

004026b0 <_FsOpenFile>:
  4026b0:	55                   	push   %ebp
  4026b1:	89 e5                	mov    %esp,%ebp
  4026b3:	83 ec 78             	sub    $0x78,%esp
  4026b6:	e8 b7 fa ff ff       	call   402172 <_SysGetCurrentSpaceId>
  4026bb:	89 45 f0             	mov    %eax,0xfffffff0(%ebp)
  4026be:	c7 04 24 2c 00 00 00 	movl   $0x2c,(%esp)
  4026c5:	e8 4f eb ff ff       	call   401219 <_malloc>
  4026ca:	89 45 f4             	mov    %eax,0xfffffff4(%ebp)
  4026cd:	83 7d f4 00          	cmpl   $0x0,0xfffffff4(%ebp)
  4026d1:	75 0b                	jne    4026de <_FsOpenFile+0x2e>
  4026d3:	8b 45 f4             	mov    0xfffffff4(%ebp),%eax
  4026d6:	89 45 a0             	mov    %eax,0xffffffa0(%ebp)
  4026d9:	e9 37 01 00 00       	jmp    402815 <_FsOpenFile+0x165>
  4026de:	c7 04 24 04 00 00 00 	movl   $0x4,(%esp)
  4026e5:	e8 97 0e 00 00       	call   403581 <_SmGetServiceThreadById>
  4026ea:	89 45 a8             	mov    %eax,0xffffffa8(%ebp)
  4026ed:	8b 45 a8             	mov    0xffffffa8(%ebp),%eax
  4026f0:	85 c0                	test   %eax,%eax
  4026f2:	75 02                	jne    4026f6 <_FsOpenFile+0x46>
  4026f4:	eb e8                	jmp    4026de <_FsOpenFile+0x2e>
  4026f6:	c7 45 b0 01 00 00 00 	movl   $0x1,0xffffffb0(%ebp)
  4026fd:	8b 45 0c             	mov    0xc(%ebp),%eax
  402700:	89 45 b4             	mov    %eax,0xffffffb4(%ebp)
  402703:	8b 45 10             	mov    0x10(%ebp),%eax
  402706:	89 45 b8             	mov    %eax,0xffffffb8(%ebp)
  402709:	c7 44 24 0c 14 00 00 	movl   $0x14,0xc(%esp)
  402710:	00 
  402711:	c7 44 24 08 02 00 00 	movl   $0x2,0x8(%esp)
  402718:	00 
  402719:	c7 44 24 04 00 10 00 	movl   $0x1000,0x4(%esp)
  402720:	00 
  402721:	8b 45 f0             	mov    0xfffffff0(%ebp),%eax
  402724:	89 04 24             	mov    %eax,(%esp)
  402727:	e8 8e fb ff ff       	call   4022ba <_SysAllocateMemory>
  40272c:	89 45 e0             	mov    %eax,0xffffffe0(%ebp)
  40272f:	c7 44 24 08 00 01 00 	movl   $0x100,0x8(%esp)
  402736:	00 
  402737:	8b 45 08             	mov    0x8(%ebp),%eax
  40273a:	89 44 24 04          	mov    %eax,0x4(%esp)
  40273e:	8b 45 e0             	mov    0xffffffe0(%ebp),%eax
  402741:	89 04 24             	mov    %eax,(%esp)
  402744:	e8 40 0f 00 00       	call   403689 <_strncpy>
  402749:	c7 44 24 04 00 00 00 	movl   $0x0,0x4(%esp)
  402750:	00 
  402751:	8d 45 a8             	lea    0xffffffa8(%ebp),%eax
  402754:	89 04 24             	mov    %eax,(%esp)
  402757:	e8 de f0 ff ff       	call   40183a <_Api_Send>
  40275c:	89 45 a4             	mov    %eax,0xffffffa4(%ebp)
  40275f:	c7 44 24 04 b8 0b 00 	movl   $0xbb8,0x4(%esp)
  402766:	00 
  402767:	8d 45 a8             	lea    0xffffffa8(%ebp),%eax
  40276a:	89 04 24             	mov    %eax,(%esp)
  40276d:	e8 e8 f0 ff ff       	call   40185a <_Api_Receive>
  402772:	89 45 a4             	mov    %eax,0xffffffa4(%ebp)
  402775:	83 7d a4 00          	cmpl   $0x0,0xffffffa4(%ebp)
  402779:	78 76                	js     4027f1 <_FsOpenFile+0x141>
  40277b:	83 7d dc 00          	cmpl   $0x0,0xffffffdc(%ebp)
  40277f:	75 70                	jne    4027f1 <_FsOpenFile+0x141>
  402781:	8b 45 f4             	mov    0xfffffff4(%ebp),%eax
  402784:	c7 40 08 00 10 00 00 	movl   $0x1000,0x8(%eax)
  40278b:	8b 55 f4             	mov    0xfffffff4(%ebp),%edx
  40278e:	8b 45 e0             	mov    0xffffffe0(%ebp),%eax
  402791:	89 42 04             	mov    %eax,0x4(%edx)
  402794:	8b 45 f4             	mov    0xfffffff4(%ebp),%eax
  402797:	c7 00 00 00 00 00    	movl   $0x0,(%eax)
  40279d:	8b 45 f4             	mov    0xfffffff4(%ebp),%eax
  4027a0:	c7 40 10 00 00 00 00 	movl   $0x0,0x10(%eax)
  4027a7:	8b 55 f4             	mov    0xfffffff4(%ebp),%edx
  4027aa:	8b 45 b4             	mov    0xffffffb4(%ebp),%eax
  4027ad:	89 42 28             	mov    %eax,0x28(%edx)
  4027b0:	8b 55 f4             	mov    0xfffffff4(%ebp),%edx
  4027b3:	8b 45 b8             	mov    0xffffffb8(%ebp),%eax
  4027b6:	89 42 0c             	mov    %eax,0xc(%edx)
  4027b9:	8b 55 f4             	mov    0xfffffff4(%ebp),%edx
  4027bc:	8b 45 bc             	mov    0xffffffbc(%ebp),%eax
  4027bf:	89 42 1c             	mov    %eax,0x1c(%edx)
  4027c2:	8b 55 f4             	mov    0xfffffff4(%ebp),%edx
  4027c5:	8b 45 c0             	mov    0xffffffc0(%ebp),%eax
  4027c8:	89 42 14             	mov    %eax,0x14(%edx)
  4027cb:	8b 55 f4             	mov    0xfffffff4(%ebp),%edx
  4027ce:	8b 45 c4             	mov    0xffffffc4(%ebp),%eax
  4027d1:	89 42 18             	mov    %eax,0x18(%edx)
  4027d4:	8b 55 f4             	mov    0xfffffff4(%ebp),%edx
  4027d7:	8b 45 10             	mov    0x10(%ebp),%eax
  4027da:	83 c8 08             	or     $0x8,%eax
  4027dd:	89 42 20             	mov    %eax,0x20(%edx)
  4027e0:	8b 55 f4             	mov    0xfffffff4(%ebp),%edx
  4027e3:	8b 45 0c             	mov    0xc(%ebp),%eax
  4027e6:	89 42 24             	mov    %eax,0x24(%edx)
  4027e9:	8b 45 f4             	mov    0xfffffff4(%ebp),%eax
  4027ec:	89 45 a0             	mov    %eax,0xffffffa0(%ebp)
  4027ef:	eb 24                	jmp    402815 <_FsOpenFile+0x165>
  4027f1:	8b 45 e0             	mov    0xffffffe0(%ebp),%eax
  4027f4:	89 44 24 04          	mov    %eax,0x4(%esp)
  4027f8:	8b 45 f0             	mov    0xfffffff0(%ebp),%eax
  4027fb:	89 04 24             	mov    %eax,(%esp)
  4027fe:	e8 8a fb ff ff       	call   40238d <_SysFreeMemory>
  402803:	8b 45 f4             	mov    0xfffffff4(%ebp),%eax
  402806:	89 04 24             	mov    %eax,(%esp)
  402809:	e8 7a ec ff ff       	call   401488 <_free>
  40280e:	c7 45 a0 00 00 00 00 	movl   $0x0,0xffffffa0(%ebp)
  402815:	8b 45 a0             	mov    0xffffffa0(%ebp),%eax
  402818:	c9                   	leave  
  402819:	c3                   	ret    

0040281a <_FsCloseFile>:
  40281a:	55                   	push   %ebp
  40281b:	89 e5                	mov    %esp,%ebp
  40281d:	83 ec 28             	sub    $0x28,%esp
  402820:	83 7d 08 00          	cmpl   $0x0,0x8(%ebp)
  402824:	75 05                	jne    40282b <_FsCloseFile+0x11>
  402826:	e9 8f 00 00 00       	jmp    4028ba <_FsCloseFile+0xa0>
  40282b:	8b 45 08             	mov    0x8(%ebp),%eax
  40282e:	83 78 04 00          	cmpl   $0x0,0x4(%eax)
  402832:	74 2d                	je     402861 <_FsCloseFile+0x47>
  402834:	e8 39 f9 ff ff       	call   402172 <_SysGetCurrentSpaceId>
  402839:	89 c2                	mov    %eax,%edx
  40283b:	8b 45 08             	mov    0x8(%ebp),%eax
  40283e:	8b 40 04             	mov    0x4(%eax),%eax
  402841:	89 44 24 04          	mov    %eax,0x4(%esp)
  402845:	89 14 24             	mov    %edx,(%esp)
  402848:	e8 40 fb ff ff       	call   40238d <_SysFreeMemory>
  40284d:	8b 45 08             	mov    0x8(%ebp),%eax
  402850:	c7 40 04 00 00 00 00 	movl   $0x0,0x4(%eax)
  402857:	8b 45 08             	mov    0x8(%ebp),%eax
  40285a:	c7 40 08 00 00 00 00 	movl   $0x0,0x8(%eax)
  402861:	8b 45 08             	mov    0x8(%ebp),%eax
  402864:	89 04 24             	mov    %eax,(%esp)
  402867:	e8 1c ec ff ff       	call   401488 <_free>
  40286c:	8b 45 08             	mov    0x8(%ebp),%eax
  40286f:	8b 40 28             	mov    0x28(%eax),%eax
  402872:	89 45 fc             	mov    %eax,0xfffffffc(%ebp)
  402875:	c7 04 24 04 00 00 00 	movl   $0x4,(%esp)
  40287c:	e8 00 0d 00 00       	call   403581 <_SmGetServiceThreadById>
  402881:	89 c2                	mov    %eax,%edx
  402883:	c7 44 24 18 00 00 00 	movl   $0x0,0x18(%esp)
  40288a:	00 
  40288b:	c7 44 24 14 00 00 00 	movl   $0x0,0x14(%esp)
  402892:	00 
  402893:	c7 44 24 10 00 00 00 	movl   $0x0,0x10(%esp)
  40289a:	00 
  40289b:	c7 44 24 0c 00 00 00 	movl   $0x0,0xc(%esp)
  4028a2:	00 
  4028a3:	8d 45 fc             	lea    0xfffffffc(%ebp),%eax
  4028a6:	89 44 24 08          	mov    %eax,0x8(%esp)
  4028aa:	c7 44 24 04 02 00 00 	movl   $0x2,0x4(%esp)
  4028b1:	00 
  4028b2:	89 14 24             	mov    %edx,(%esp)
  4028b5:	e8 46 f0 ff ff       	call   401900 <_SendMessage>
  4028ba:	c9                   	leave  
  4028bb:	c3                   	ret    

004028bc <_ReadWriteBuffer>:
  4028bc:	55                   	push   %ebp
  4028bd:	89 e5                	mov    %esp,%ebp
  4028bf:	83 ec 68             	sub    $0x68,%esp
  4028c2:	c7 04 24 04 00 00 00 	movl   $0x4,(%esp)
  4028c9:	e8 b3 0c 00 00       	call   403581 <_SmGetServiceThreadById>
  4028ce:	89 45 b8             	mov    %eax,0xffffffb8(%ebp)
  4028d1:	8b 45 10             	mov    0x10(%ebp),%eax
  4028d4:	89 45 c0             	mov    %eax,0xffffffc0(%ebp)
  4028d7:	8b 45 08             	mov    0x8(%ebp),%eax
  4028da:	8b 40 28             	mov    0x28(%eax),%eax
  4028dd:	89 45 c4             	mov    %eax,0xffffffc4(%ebp)
  4028e0:	8b 45 0c             	mov    0xc(%ebp),%eax
  4028e3:	89 45 c8             	mov    %eax,0xffffffc8(%ebp)
  4028e6:	8b 45 08             	mov    0x8(%ebp),%eax
  4028e9:	8b 40 08             	mov    0x8(%eax),%eax
  4028ec:	89 45 cc             	mov    %eax,0xffffffcc(%ebp)
  4028ef:	8b 45 08             	mov    0x8(%ebp),%eax
  4028f2:	8b 40 04             	mov    0x4(%eax),%eax
  4028f5:	89 45 f0             	mov    %eax,0xfffffff0(%ebp)
  4028f8:	c7 44 24 04 00 00 00 	movl   $0x0,0x4(%esp)
  4028ff:	00 
  402900:	8d 45 b8             	lea    0xffffffb8(%ebp),%eax
  402903:	89 04 24             	mov    %eax,(%esp)
  402906:	e8 2f ef ff ff       	call   40183a <_Api_Send>
  40290b:	89 45 b4             	mov    %eax,0xffffffb4(%ebp)
  40290e:	c7 44 24 04 ff ff ff 	movl   $0xffffffff,0x4(%esp)
  402915:	ff 
  402916:	8d 45 b8             	lea    0xffffffb8(%ebp),%eax
  402919:	89 04 24             	mov    %eax,(%esp)
  40291c:	e8 39 ef ff ff       	call   40185a <_Api_Receive>
  402921:	89 45 b4             	mov    %eax,0xffffffb4(%ebp)
  402924:	83 7d b4 00          	cmpl   $0x0,0xffffffb4(%ebp)
  402928:	79 08                	jns    402932 <_ReadWriteBuffer+0x76>
  40292a:	8b 45 b4             	mov    0xffffffb4(%ebp),%eax
  40292d:	89 45 b0             	mov    %eax,0xffffffb0(%ebp)
  402930:	eb 06                	jmp    402938 <_ReadWriteBuffer+0x7c>
  402932:	8b 45 ec             	mov    0xffffffec(%ebp),%eax
  402935:	89 45 b0             	mov    %eax,0xffffffb0(%ebp)
  402938:	8b 45 b0             	mov    0xffffffb0(%ebp),%eax
  40293b:	c9                   	leave  
  40293c:	c3                   	ret    

0040293d <_FsReadFile>:
  40293d:	55                   	push   %ebp
  40293e:	89 e5                	mov    %esp,%ebp
  402940:	83 ec 28             	sub    $0x28,%esp
  402943:	8b 45 08             	mov    0x8(%ebp),%eax
  402946:	8b 40 20             	mov    0x20(%eax),%eax
  402949:	c1 e8 03             	shr    $0x3,%eax
  40294c:	83 e0 01             	and    $0x1,%eax
  40294f:	85 c0                	test   %eax,%eax
  402951:	0f 84 a4 00 00 00    	je     4029fb <_FsReadFile+0xbe>
  402957:	c7 45 fc 00 00 00 00 	movl   $0x0,0xfffffffc(%ebp)
  40295e:	c7 45 f8 00 00 00 00 	movl   $0x0,0xfffffff8(%ebp)
  402965:	8b 45 fc             	mov    0xfffffffc(%ebp),%eax
  402968:	3b 45 10             	cmp    0x10(%ebp),%eax
  40296b:	0f 8d 82 00 00 00    	jge    4029f3 <_FsReadFile+0xb6>
  402971:	8b 45 fc             	mov    0xfffffffc(%ebp),%eax
  402974:	8b 55 10             	mov    0x10(%ebp),%edx
  402977:	29 c2                	sub    %eax,%edx
  402979:	89 d0                	mov    %edx,%eax
  40297b:	89 45 f8             	mov    %eax,0xfffffff8(%ebp)
  40297e:	81 7d f8 00 10 00 00 	cmpl   $0x1000,0xfffffff8(%ebp)
  402985:	7e 07                	jle    40298e <_FsReadFile+0x51>
  402987:	c7 45 f8 00 10 00 00 	movl   $0x1000,0xfffffff8(%ebp)
  40298e:	c7 44 24 08 03 00 00 	movl   $0x3,0x8(%esp)
  402995:	00 
  402996:	8b 45 f8             	mov    0xfffffff8(%ebp),%eax
  402999:	89 44 24 04          	mov    %eax,0x4(%esp)
  40299d:	8b 45 08             	mov    0x8(%ebp),%eax
  4029a0:	89 04 24             	mov    %eax,(%esp)
  4029a3:	e8 14 ff ff ff       	call   4028bc <_ReadWriteBuffer>
  4029a8:	89 45 f4             	mov    %eax,0xfffffff4(%ebp)
  4029ab:	83 7d f4 00          	cmpl   $0x0,0xfffffff4(%ebp)
  4029af:	7f 02                	jg     4029b3 <_FsReadFile+0x76>
  4029b1:	eb 40                	jmp    4029f3 <_FsReadFile+0xb6>
  4029b3:	8b 45 f4             	mov    0xfffffff4(%ebp),%eax
  4029b6:	89 44 24 08          	mov    %eax,0x8(%esp)
  4029ba:	8b 45 08             	mov    0x8(%ebp),%eax
  4029bd:	8b 40 04             	mov    0x4(%eax),%eax
  4029c0:	89 44 24 04          	mov    %eax,0x4(%esp)
  4029c4:	8b 45 0c             	mov    0xc(%ebp),%eax
  4029c7:	89 04 24             	mov    %eax,(%esp)
  4029ca:	e8 30 0f 00 00       	call   4038ff <_memcpy>
  4029cf:	8b 55 f4             	mov    0xfffffff4(%ebp),%edx
  4029d2:	8d 45 0c             	lea    0xc(%ebp),%eax
  4029d5:	01 10                	add    %edx,(%eax)
  4029d7:	8b 4d 08             	mov    0x8(%ebp),%ecx
  4029da:	8b 55 08             	mov    0x8(%ebp),%edx
  4029dd:	8b 45 f4             	mov    0xfffffff4(%ebp),%eax
  4029e0:	03 42 10             	add    0x10(%edx),%eax
  4029e3:	89 41 10             	mov    %eax,0x10(%ecx)
  4029e6:	8b 55 f4             	mov    0xfffffff4(%ebp),%edx
  4029e9:	8d 45 fc             	lea    0xfffffffc(%ebp),%eax
  4029ec:	01 10                	add    %edx,(%eax)
  4029ee:	e9 72 ff ff ff       	jmp    402965 <_FsReadFile+0x28>
  4029f3:	8b 45 fc             	mov    0xfffffffc(%ebp),%eax
  4029f6:	89 45 f0             	mov    %eax,0xfffffff0(%ebp)
  4029f9:	eb 13                	jmp    402a0e <_FsReadFile+0xd1>
  4029fb:	c7 04 24 b0 71 40 00 	movl   $0x4071b0,(%esp)
  402a02:	e8 a9 02 00 00       	call   402cb0 <_printf>
  402a07:	c7 45 f0 fe ff ff ff 	movl   $0xfffffffe,0xfffffff0(%ebp)
  402a0e:	8b 45 f0             	mov    0xfffffff0(%ebp),%eax
  402a11:	c9                   	leave  
  402a12:	c3                   	ret    

00402a13 <_FsWriteFile>:
  402a13:	55                   	push   %ebp
  402a14:	89 e5                	mov    %esp,%ebp
  402a16:	83 ec 28             	sub    $0x28,%esp
  402a19:	8b 45 08             	mov    0x8(%ebp),%eax
  402a1c:	8b 40 20             	mov    0x20(%eax),%eax
  402a1f:	c1 e8 03             	shr    $0x3,%eax
  402a22:	83 e0 01             	and    $0x1,%eax
  402a25:	85 c0                	test   %eax,%eax
  402a27:	0f 84 aa 00 00 00    	je     402ad7 <_FsWriteFile+0xc4>
  402a2d:	c7 45 fc 00 00 00 00 	movl   $0x0,0xfffffffc(%ebp)
  402a34:	c7 45 f8 00 00 00 00 	movl   $0x0,0xfffffff8(%ebp)
  402a3b:	8b 45 fc             	mov    0xfffffffc(%ebp),%eax
  402a3e:	3b 45 10             	cmp    0x10(%ebp),%eax
  402a41:	0f 8d 88 00 00 00    	jge    402acf <_FsWriteFile+0xbc>
  402a47:	8b 45 fc             	mov    0xfffffffc(%ebp),%eax
  402a4a:	8b 55 10             	mov    0x10(%ebp),%edx
  402a4d:	29 c2                	sub    %eax,%edx
  402a4f:	89 d0                	mov    %edx,%eax
  402a51:	89 45 f8             	mov    %eax,0xfffffff8(%ebp)
  402a54:	81 7d f8 00 10 00 00 	cmpl   $0x1000,0xfffffff8(%ebp)
  402a5b:	7e 07                	jle    402a64 <_FsWriteFile+0x51>
  402a5d:	c7 45 f8 00 10 00 00 	movl   $0x1000,0xfffffff8(%ebp)
  402a64:	8b 45 f8             	mov    0xfffffff8(%ebp),%eax
  402a67:	89 44 24 08          	mov    %eax,0x8(%esp)
  402a6b:	8b 45 0c             	mov    0xc(%ebp),%eax
  402a6e:	89 44 24 04          	mov    %eax,0x4(%esp)
  402a72:	8b 45 08             	mov    0x8(%ebp),%eax
  402a75:	8b 40 04             	mov    0x4(%eax),%eax
  402a78:	89 04 24             	mov    %eax,(%esp)
  402a7b:	e8 7f 0e 00 00       	call   4038ff <_memcpy>
  402a80:	c7 44 24 08 04 00 00 	movl   $0x4,0x8(%esp)
  402a87:	00 
  402a88:	8b 45 f8             	mov    0xfffffff8(%ebp),%eax
  402a8b:	89 44 24 04          	mov    %eax,0x4(%esp)
  402a8f:	8b 45 08             	mov    0x8(%ebp),%eax
  402a92:	89 04 24             	mov    %eax,(%esp)
  402a95:	e8 22 fe ff ff       	call   4028bc <_ReadWriteBuffer>
  402a9a:	89 45 f4             	mov    %eax,0xfffffff4(%ebp)
  402a9d:	83 7d f4 00          	cmpl   $0x0,0xfffffff4(%ebp)
  402aa1:	7f 08                	jg     402aab <_FsWriteFile+0x98>
  402aa3:	8b 45 fc             	mov    0xfffffffc(%ebp),%eax
  402aa6:	89 45 f0             	mov    %eax,0xfffffff0(%ebp)
  402aa9:	eb 3f                	jmp    402aea <_FsWriteFile+0xd7>
  402aab:	8b 55 f4             	mov    0xfffffff4(%ebp),%edx
  402aae:	8d 45 0c             	lea    0xc(%ebp),%eax
  402ab1:	01 10                	add    %edx,(%eax)
  402ab3:	8b 4d 08             	mov    0x8(%ebp),%ecx
  402ab6:	8b 55 08             	mov    0x8(%ebp),%edx
  402ab9:	8b 45 f4             	mov    0xfffffff4(%ebp),%eax
  402abc:	03 42 10             	add    0x10(%edx),%eax
  402abf:	89 41 10             	mov    %eax,0x10(%ecx)
  402ac2:	8b 55 f4             	mov    0xfffffff4(%ebp),%edx
  402ac5:	8d 45 fc             	lea    0xfffffffc(%ebp),%eax
  402ac8:	01 10                	add    %edx,(%eax)
  402aca:	e9 6c ff ff ff       	jmp    402a3b <_FsWriteFile+0x28>
  402acf:	8b 45 fc             	mov    0xfffffffc(%ebp),%eax
  402ad2:	89 45 f0             	mov    %eax,0xfffffff0(%ebp)
  402ad5:	eb 13                	jmp    402aea <_FsWriteFile+0xd7>
  402ad7:	c7 04 24 b0 71 40 00 	movl   $0x4071b0,(%esp)
  402ade:	e8 cd 01 00 00       	call   402cb0 <_printf>
  402ae3:	c7 45 f0 fe ff ff ff 	movl   $0xfffffffe,0xfffffff0(%ebp)
  402aea:	8b 45 f0             	mov    0xfffffff0(%ebp),%eax
  402aed:	c9                   	leave  
  402aee:	c3                   	ret    

00402aef <_FsSetFilePointer>:
  402aef:	55                   	push   %ebp
  402af0:	89 e5                	mov    %esp,%ebp
  402af2:	83 ec 78             	sub    $0x78,%esp
  402af5:	c7 45 b4 00 00 00 00 	movl   $0x0,0xffffffb4(%ebp)
  402afc:	8b 45 08             	mov    0x8(%ebp),%eax
  402aff:	8b 40 28             	mov    0x28(%eax),%eax
  402b02:	89 45 b0             	mov    %eax,0xffffffb0(%ebp)
  402b05:	c7 04 24 04 00 00 00 	movl   $0x4,(%esp)
  402b0c:	e8 70 0a 00 00       	call   403581 <_SmGetServiceThreadById>
  402b11:	89 c2                	mov    %eax,%edx
  402b13:	8d 45 b4             	lea    0xffffffb4(%ebp),%eax
  402b16:	89 44 24 18          	mov    %eax,0x18(%esp)
  402b1a:	c7 44 24 14 00 00 00 	movl   $0x0,0x14(%esp)
  402b21:	00 
  402b22:	8d 45 10             	lea    0x10(%ebp),%eax
  402b25:	89 44 24 10          	mov    %eax,0x10(%esp)
  402b29:	8d 45 0c             	lea    0xc(%ebp),%eax
  402b2c:	89 44 24 0c          	mov    %eax,0xc(%esp)
  402b30:	8d 45 b0             	lea    0xffffffb0(%ebp),%eax
  402b33:	89 44 24 08          	mov    %eax,0x8(%esp)
  402b37:	c7 44 24 04 05 00 00 	movl   $0x5,0x4(%esp)
  402b3e:	00 
  402b3f:	89 14 24             	mov    %edx,(%esp)
  402b42:	e8 b9 ed ff ff       	call   401900 <_SendMessage>
  402b47:	8b 45 b4             	mov    0xffffffb4(%ebp),%eax
  402b4a:	c9                   	leave  
  402b4b:	c3                   	ret    

00402b4c <_FsSetFileSize>:
  402b4c:	55                   	push   %ebp
  402b4d:	89 e5                	mov    %esp,%ebp
  402b4f:	83 ec 78             	sub    $0x78,%esp
  402b52:	c7 45 b4 00 00 00 00 	movl   $0x0,0xffffffb4(%ebp)
  402b59:	8b 45 08             	mov    0x8(%ebp),%eax
  402b5c:	8b 40 28             	mov    0x28(%eax),%eax
  402b5f:	89 45 b0             	mov    %eax,0xffffffb0(%ebp)
  402b62:	c7 04 24 04 00 00 00 	movl   $0x4,(%esp)
  402b69:	e8 13 0a 00 00       	call   403581 <_SmGetServiceThreadById>
  402b6e:	89 c2                	mov    %eax,%edx
  402b70:	8d 45 b4             	lea    0xffffffb4(%ebp),%eax
  402b73:	89 44 24 18          	mov    %eax,0x18(%esp)
  402b77:	c7 44 24 14 00 00 00 	movl   $0x0,0x14(%esp)
  402b7e:	00 
  402b7f:	c7 44 24 10 00 00 00 	movl   $0x0,0x10(%esp)
  402b86:	00 
  402b87:	8d 45 0c             	lea    0xc(%ebp),%eax
  402b8a:	89 44 24 0c          	mov    %eax,0xc(%esp)
  402b8e:	8d 45 b0             	lea    0xffffffb0(%ebp),%eax
  402b91:	89 44 24 08          	mov    %eax,0x8(%esp)
  402b95:	c7 44 24 04 06 00 00 	movl   $0x6,0x4(%esp)
  402b9c:	00 
  402b9d:	89 14 24             	mov    %edx,(%esp)
  402ba0:	e8 5b ed ff ff       	call   401900 <_SendMessage>
  402ba5:	8b 45 b4             	mov    0xffffffb4(%ebp),%eax
  402ba8:	c9                   	leave  
  402ba9:	c3                   	ret    

00402baa <_FsControlFile>:
  402baa:	55                   	push   %ebp
  402bab:	89 e5                	mov    %esp,%ebp
  402bad:	83 ec 78             	sub    $0x78,%esp
  402bb0:	c7 45 b4 00 00 00 00 	movl   $0x0,0xffffffb4(%ebp)
  402bb7:	8b 45 08             	mov    0x8(%ebp),%eax
  402bba:	8b 40 28             	mov    0x28(%eax),%eax
  402bbd:	89 45 b0             	mov    %eax,0xffffffb0(%ebp)
  402bc0:	c7 04 24 04 00 00 00 	movl   $0x4,(%esp)
  402bc7:	e8 b5 09 00 00       	call   403581 <_SmGetServiceThreadById>
  402bcc:	89 c2                	mov    %eax,%edx
  402bce:	8d 45 b4             	lea    0xffffffb4(%ebp),%eax
  402bd1:	89 44 24 18          	mov    %eax,0x18(%esp)
  402bd5:	c7 44 24 14 00 00 00 	movl   $0x0,0x14(%esp)
  402bdc:	00 
  402bdd:	8d 45 10             	lea    0x10(%ebp),%eax
  402be0:	89 44 24 10          	mov    %eax,0x10(%esp)
  402be4:	8d 45 0c             	lea    0xc(%ebp),%eax
  402be7:	89 44 24 0c          	mov    %eax,0xc(%esp)
  402beb:	8d 45 b0             	lea    0xffffffb0(%ebp),%eax
  402bee:	89 44 24 08          	mov    %eax,0x8(%esp)
  402bf2:	c7 44 24 04 07 00 00 	movl   $0x7,0x4(%esp)
  402bf9:	00 
  402bfa:	89 14 24             	mov    %edx,(%esp)
  402bfd:	e8 fe ec ff ff       	call   401900 <_SendMessage>
  402c02:	8b 45 b4             	mov    0xffffffb4(%ebp),%eax
  402c05:	c9                   	leave  
  402c06:	c3                   	ret    

00402c07 <_FsReadDirectory>:
  402c07:	55                   	push   %ebp
  402c08:	89 e5                	mov    %esp,%ebp
  402c0a:	5d                   	pop    %ebp
  402c0b:	c3                   	ret    
  402c0c:	90                   	nop    
  402c0d:	90                   	nop    
  402c0e:	90                   	nop    
  402c0f:	90                   	nop    

00402c10 <_GetCurrentThreadInformation>:
  402c10:	55                   	push   %ebp
  402c11:	89 e5                	mov    %esp,%ebp
  402c13:	83 ec 04             	sub    $0x4,%esp
  402c16:	64 a1 18 00 00 00    	mov    %fs:0x18,%eax
  402c1c:	89 45 fc             	mov    %eax,0xfffffffc(%ebp)
  402c1f:	8b 45 fc             	mov    0xfffffffc(%ebp),%eax
  402c22:	c9                   	leave  
  402c23:	c3                   	ret    

00402c24 <_GetCurrentProcessInformation>:
  402c24:	55                   	push   %ebp
  402c25:	89 e5                	mov    %esp,%ebp
  402c27:	83 ec 08             	sub    $0x8,%esp
  402c2a:	e8 e1 ff ff ff       	call   402c10 <_GetCurrentThreadInformation>
  402c2f:	89 45 fc             	mov    %eax,0xfffffffc(%ebp)
  402c32:	83 7d fc 00          	cmpl   $0x0,0xfffffffc(%ebp)
  402c36:	74 0b                	je     402c43 <_GetCurrentProcessInformation+0x1f>
  402c38:	8b 45 fc             	mov    0xfffffffc(%ebp),%eax
  402c3b:	8b 40 10             	mov    0x10(%eax),%eax
  402c3e:	89 45 f8             	mov    %eax,0xfffffff8(%ebp)
  402c41:	eb 07                	jmp    402c4a <_GetCurrentProcessInformation+0x26>
  402c43:	c7 45 f8 00 00 00 00 	movl   $0x0,0xfffffff8(%ebp)
  402c4a:	8b 45 f8             	mov    0xfffffff8(%ebp),%eax
  402c4d:	c9                   	leave  
  402c4e:	c3                   	ret    
  402c4f:	90                   	nop    

00402c50 <_srand>:
  402c50:	55                   	push   %ebp
  402c51:	89 e5                	mov    %esp,%ebp
  402c53:	8b 45 08             	mov    0x8(%ebp),%eax
  402c56:	66 a3 90 80 40 00    	mov    %ax,0x408090
  402c5c:	5d                   	pop    %ebp
  402c5d:	c3                   	ret    

00402c5e <_rand>:
  402c5e:	55                   	push   %ebp
  402c5f:	89 e5                	mov    %esp,%ebp
  402c61:	0f b7 05 90 80 40 00 	movzwl 0x408090,%eax
  402c68:	69 c0 6d 4e c6 41    	imul   $0x41c64e6d,%eax,%eax
  402c6e:	ba a6 7e 00 00       	mov    $0x7ea6,%edx
  402c73:	01 d0                	add    %edx,%eax
  402c75:	66 a3 90 80 40 00    	mov    %ax,0x408090
  402c7b:	0f b7 05 90 80 40 00 	movzwl 0x408090,%eax
  402c82:	5d                   	pop    %ebp
  402c83:	c3                   	ret    

00402c84 <_pow>:
  402c84:	55                   	push   %ebp
  402c85:	89 e5                	mov    %esp,%ebp
  402c87:	83 ec 04             	sub    $0x4,%esp
  402c8a:	c7 45 fc 01 00 00 00 	movl   $0x1,0xfffffffc(%ebp)
  402c91:	8d 45 0c             	lea    0xc(%ebp),%eax
  402c94:	ff 08                	decl   (%eax)
  402c96:	83 7d 0c ff          	cmpl   $0xffffffff,0xc(%ebp)
  402c9a:	74 0c                	je     402ca8 <_pow+0x24>
  402c9c:	8b 45 fc             	mov    0xfffffffc(%ebp),%eax
  402c9f:	0f af 45 08          	imul   0x8(%ebp),%eax
  402ca3:	89 45 fc             	mov    %eax,0xfffffffc(%ebp)
  402ca6:	eb e9                	jmp    402c91 <_pow+0xd>
  402ca8:	8b 45 fc             	mov    0xfffffffc(%ebp),%eax
  402cab:	c9                   	leave  
  402cac:	c3                   	ret    
  402cad:	90                   	nop    
  402cae:	90                   	nop    
  402caf:	90                   	nop    

00402cb0 <_printf>:
  402cb0:	55                   	push   %ebp
  402cb1:	89 e5                	mov    %esp,%ebp
  402cb3:	81 ec 28 04 00 00    	sub    $0x428,%esp
  402cb9:	8d 45 0c             	lea    0xc(%ebp),%eax
  402cbc:	89 45 f4             	mov    %eax,0xfffffff4(%ebp)
  402cbf:	8b 45 f4             	mov    0xfffffff4(%ebp),%eax
  402cc2:	89 44 24 08          	mov    %eax,0x8(%esp)
  402cc6:	8b 45 08             	mov    0x8(%ebp),%eax
  402cc9:	89 44 24 04          	mov    %eax,0x4(%esp)
  402ccd:	8d 85 e8 fb ff ff    	lea    0xfffffbe8(%ebp),%eax
  402cd3:	89 04 24             	mov    %eax,(%esp)
  402cd6:	e8 e0 1b 00 00       	call   4048bb <_vsprintf>
  402cdb:	89 45 f0             	mov    %eax,0xfffffff0(%ebp)
  402cde:	8b 45 f0             	mov    0xfffffff0(%ebp),%eax
  402ce1:	89 44 24 04          	mov    %eax,0x4(%esp)
  402ce5:	8d 85 e8 fb ff ff    	lea    0xfffffbe8(%ebp),%eax
  402ceb:	89 04 24             	mov    %eax,(%esp)
  402cee:	e8 27 eb ff ff       	call   40181a <_Api_Print>
  402cf3:	8b 45 f0             	mov    0xfffffff0(%ebp),%eax
  402cf6:	c9                   	leave  
  402cf7:	c3                   	ret    
  402cf8:	90                   	nop    
  402cf9:	90                   	nop    
  402cfa:	90                   	nop    
  402cfb:	90                   	nop    
  402cfc:	90                   	nop    
  402cfd:	90                   	nop    
  402cfe:	90                   	nop    
  402cff:	90                   	nop    

00402d00 <_PsGetCurrentProcessId>:
  402d00:	55                   	push   %ebp
  402d01:	89 e5                	mov    %esp,%ebp
  402d03:	83 ec 08             	sub    $0x8,%esp
  402d06:	e8 19 ff ff ff       	call   402c24 <_GetCurrentProcessInformation>
  402d0b:	89 45 fc             	mov    %eax,0xfffffffc(%ebp)
  402d0e:	83 7d fc 00          	cmpl   $0x0,0xfffffffc(%ebp)
  402d12:	74 0e                	je     402d22 <_PsGetCurrentProcessId+0x22>
  402d14:	8b 45 fc             	mov    0xfffffffc(%ebp),%eax
  402d17:	8b 80 80 00 00 00    	mov    0x80(%eax),%eax
  402d1d:	89 45 f8             	mov    %eax,0xfffffff8(%ebp)
  402d20:	eb 07                	jmp    402d29 <_PsGetCurrentProcessId+0x29>
  402d22:	c7 45 f8 00 00 00 00 	movl   $0x0,0xfffffff8(%ebp)
  402d29:	8b 45 f8             	mov    0xfffffff8(%ebp),%eax
  402d2c:	c9                   	leave  
  402d2d:	c3                   	ret    

00402d2e <_PsCreateProcess>:
  402d2e:	55                   	push   %ebp
  402d2f:	89 e5                	mov    %esp,%ebp
  402d31:	83 ec 68             	sub    $0x68,%esp
  402d34:	c7 04 24 02 00 00 00 	movl   $0x2,(%esp)
  402d3b:	e8 41 08 00 00       	call   403581 <_SmGetServiceThreadById>
  402d40:	89 45 b8             	mov    %eax,0xffffffb8(%ebp)
  402d43:	c7 45 c0 01 00 00 00 	movl   $0x1,0xffffffc0(%ebp)
  402d4a:	e8 b1 ff ff ff       	call   402d00 <_PsGetCurrentProcessId>
  402d4f:	89 45 c4             	mov    %eax,0xffffffc4(%ebp)
  402d52:	e8 1b f4 ff ff       	call   402172 <_SysGetCurrentSpaceId>
  402d57:	c7 44 24 0c 04 00 00 	movl   $0x4,0xc(%esp)
  402d5e:	00 
  402d5f:	c7 44 24 08 02 00 00 	movl   $0x2,0x8(%esp)
  402d66:	00 
  402d67:	c7 44 24 04 00 10 00 	movl   $0x1000,0x4(%esp)
  402d6e:	00 
  402d6f:	89 04 24             	mov    %eax,(%esp)
  402d72:	e8 43 f5 ff ff       	call   4022ba <_SysAllocateMemory>
  402d77:	89 45 f0             	mov    %eax,0xfffffff0(%ebp)
  402d7a:	8b 45 08             	mov    0x8(%ebp),%eax
  402d7d:	89 44 24 04          	mov    %eax,0x4(%esp)
  402d81:	8b 45 f0             	mov    0xfffffff0(%ebp),%eax
  402d84:	89 04 24             	mov    %eax,(%esp)
  402d87:	e8 e4 08 00 00       	call   403670 <_strcpy>
  402d8c:	e8 e1 f3 ff ff       	call   402172 <_SysGetCurrentSpaceId>
  402d91:	c7 44 24 0c 04 00 00 	movl   $0x4,0xc(%esp)
  402d98:	00 
  402d99:	c7 44 24 08 02 00 00 	movl   $0x2,0x8(%esp)
  402da0:	00 
  402da1:	c7 44 24 04 00 00 01 	movl   $0x10000,0x4(%esp)
  402da8:	00 
  402da9:	89 04 24             	mov    %eax,(%esp)
  402dac:	e8 09 f5 ff ff       	call   4022ba <_SysAllocateMemory>
  402db1:	89 45 f4             	mov    %eax,0xfffffff4(%ebp)
  402db4:	83 7d 0c 00          	cmpl   $0x0,0xc(%ebp)
  402db8:	74 14                	je     402dce <_PsCreateProcess+0xa0>
  402dba:	8b 45 0c             	mov    0xc(%ebp),%eax
  402dbd:	89 44 24 04          	mov    %eax,0x4(%esp)
  402dc1:	8b 45 f4             	mov    0xfffffff4(%ebp),%eax
  402dc4:	89 04 24             	mov    %eax,(%esp)
  402dc7:	e8 a4 08 00 00       	call   403670 <_strcpy>
  402dcc:	eb 13                	jmp    402de1 <_PsCreateProcess+0xb3>
  402dce:	c7 44 24 04 f0 71 40 	movl   $0x4071f0,0x4(%esp)
  402dd5:	00 
  402dd6:	8b 45 f4             	mov    0xfffffff4(%ebp),%eax
  402dd9:	89 04 24             	mov    %eax,(%esp)
  402ddc:	e8 8f 08 00 00       	call   403670 <_strcpy>
  402de1:	c7 44 24 04 00 00 00 	movl   $0x0,0x4(%esp)
  402de8:	00 
  402de9:	8d 45 b8             	lea    0xffffffb8(%ebp),%eax
  402dec:	89 04 24             	mov    %eax,(%esp)
  402def:	e8 46 ea ff ff       	call   40183a <_Api_Send>
  402df4:	89 45 b4             	mov    %eax,0xffffffb4(%ebp)
  402df7:	83 7d b4 00          	cmpl   $0x0,0xffffffb4(%ebp)
  402dfb:	79 08                	jns    402e05 <_PsCreateProcess+0xd7>
  402dfd:	8b 45 b4             	mov    0xffffffb4(%ebp),%eax
  402e00:	89 45 b0             	mov    %eax,0xffffffb0(%ebp)
  402e03:	eb 73                	jmp    402e78 <_PsCreateProcess+0x14a>
  402e05:	c7 44 24 04 ff ff ff 	movl   $0xffffffff,0x4(%esp)
  402e0c:	ff 
  402e0d:	8d 45 b8             	lea    0xffffffb8(%ebp),%eax
  402e10:	89 04 24             	mov    %eax,(%esp)
  402e13:	e8 42 ea ff ff       	call   40185a <_Api_Receive>
  402e18:	89 45 b4             	mov    %eax,0xffffffb4(%ebp)
  402e1b:	e8 52 f3 ff ff       	call   402172 <_SysGetCurrentSpaceId>
  402e20:	89 c2                	mov    %eax,%edx
  402e22:	8b 45 f0             	mov    0xfffffff0(%ebp),%eax
  402e25:	89 44 24 04          	mov    %eax,0x4(%esp)
  402e29:	89 14 24             	mov    %edx,(%esp)
  402e2c:	e8 5c f5 ff ff       	call   40238d <_SysFreeMemory>
  402e31:	e8 3c f3 ff ff       	call   402172 <_SysGetCurrentSpaceId>
  402e36:	89 c2                	mov    %eax,%edx
  402e38:	8b 45 f4             	mov    0xfffffff4(%ebp),%eax
  402e3b:	89 44 24 04          	mov    %eax,0x4(%esp)
  402e3f:	89 14 24             	mov    %edx,(%esp)
  402e42:	e8 46 f5 ff ff       	call   40238d <_SysFreeMemory>
  402e47:	83 7d b4 00          	cmpl   $0x0,0xffffffb4(%ebp)
  402e4b:	79 08                	jns    402e55 <_PsCreateProcess+0x127>
  402e4d:	8b 45 b4             	mov    0xffffffb4(%ebp),%eax
  402e50:	89 45 b0             	mov    %eax,0xffffffb0(%ebp)
  402e53:	eb 23                	jmp    402e78 <_PsCreateProcess+0x14a>
  402e55:	83 7d ec 00          	cmpl   $0x0,0xffffffec(%ebp)
  402e59:	79 08                	jns    402e63 <_PsCreateProcess+0x135>
  402e5b:	8b 45 ec             	mov    0xffffffec(%ebp),%eax
  402e5e:	89 45 b0             	mov    %eax,0xffffffb0(%ebp)
  402e61:	eb 15                	jmp    402e78 <_PsCreateProcess+0x14a>
  402e63:	83 7d 10 00          	cmpl   $0x0,0x10(%ebp)
  402e67:	74 08                	je     402e71 <_PsCreateProcess+0x143>
  402e69:	8b 55 10             	mov    0x10(%ebp),%edx
  402e6c:	8b 45 ec             	mov    0xffffffec(%ebp),%eax
  402e6f:	89 02                	mov    %eax,(%edx)
  402e71:	c7 45 b0 00 00 00 00 	movl   $0x0,0xffffffb0(%ebp)
  402e78:	8b 45 b0             	mov    0xffffffb0(%ebp),%eax
  402e7b:	c9                   	leave  
  402e7c:	c3                   	ret    

00402e7d <_PsTerminateProcess>:
  402e7d:	55                   	push   %ebp
  402e7e:	89 e5                	mov    %esp,%ebp
  402e80:	83 ec 68             	sub    $0x68,%esp
  402e83:	c7 04 24 02 00 00 00 	movl   $0x2,(%esp)
  402e8a:	e8 f2 06 00 00       	call   403581 <_SmGetServiceThreadById>
  402e8f:	89 45 b8             	mov    %eax,0xffffffb8(%ebp)
  402e92:	c7 45 c0 02 00 00 00 	movl   $0x2,0xffffffc0(%ebp)
  402e99:	8b 45 08             	mov    0x8(%ebp),%eax
  402e9c:	89 45 c4             	mov    %eax,0xffffffc4(%ebp)
  402e9f:	8b 45 0c             	mov    0xc(%ebp),%eax
  402ea2:	89 45 c8             	mov    %eax,0xffffffc8(%ebp)
  402ea5:	c7 44 24 04 00 00 00 	movl   $0x0,0x4(%esp)
  402eac:	00 
  402ead:	8d 45 b8             	lea    0xffffffb8(%ebp),%eax
  402eb0:	89 04 24             	mov    %eax,(%esp)
  402eb3:	e8 82 e9 ff ff       	call   40183a <_Api_Send>
  402eb8:	89 45 b4             	mov    %eax,0xffffffb4(%ebp)
  402ebb:	83 7d b4 00          	cmpl   $0x0,0xffffffb4(%ebp)
  402ebf:	79 08                	jns    402ec9 <_PsTerminateProcess+0x4c>
  402ec1:	8b 45 b4             	mov    0xffffffb4(%ebp),%eax
  402ec4:	89 45 b0             	mov    %eax,0xffffffb0(%ebp)
  402ec7:	eb 2a                	jmp    402ef3 <_PsTerminateProcess+0x76>
  402ec9:	c7 44 24 04 b8 0b 00 	movl   $0xbb8,0x4(%esp)
  402ed0:	00 
  402ed1:	8d 45 b8             	lea    0xffffffb8(%ebp),%eax
  402ed4:	89 04 24             	mov    %eax,(%esp)
  402ed7:	e8 7e e9 ff ff       	call   40185a <_Api_Receive>
  402edc:	89 45 b4             	mov    %eax,0xffffffb4(%ebp)
  402edf:	83 7d b4 00          	cmpl   $0x0,0xffffffb4(%ebp)
  402ee3:	79 08                	jns    402eed <_PsTerminateProcess+0x70>
  402ee5:	8b 45 b4             	mov    0xffffffb4(%ebp),%eax
  402ee8:	89 45 b0             	mov    %eax,0xffffffb0(%ebp)
  402eeb:	eb 06                	jmp    402ef3 <_PsTerminateProcess+0x76>
  402eed:	8b 45 ec             	mov    0xffffffec(%ebp),%eax
  402ef0:	89 45 b0             	mov    %eax,0xffffffb0(%ebp)
  402ef3:	8b 45 b0             	mov    0xffffffb0(%ebp),%eax
  402ef6:	c9                   	leave  
  402ef7:	c3                   	ret    

00402ef8 <_PsSuspendProcess>:
  402ef8:	55                   	push   %ebp
  402ef9:	89 e5                	mov    %esp,%ebp
  402efb:	83 ec 68             	sub    $0x68,%esp
  402efe:	c7 04 24 02 00 00 00 	movl   $0x2,(%esp)
  402f05:	e8 77 06 00 00       	call   403581 <_SmGetServiceThreadById>
  402f0a:	89 45 b8             	mov    %eax,0xffffffb8(%ebp)
  402f0d:	c7 45 c0 03 00 00 00 	movl   $0x3,0xffffffc0(%ebp)
  402f14:	8b 45 08             	mov    0x8(%ebp),%eax
  402f17:	89 45 c4             	mov    %eax,0xffffffc4(%ebp)
  402f1a:	c7 44 24 04 00 00 00 	movl   $0x0,0x4(%esp)
  402f21:	00 
  402f22:	8d 45 b8             	lea    0xffffffb8(%ebp),%eax
  402f25:	89 04 24             	mov    %eax,(%esp)
  402f28:	e8 0d e9 ff ff       	call   40183a <_Api_Send>
  402f2d:	89 45 b4             	mov    %eax,0xffffffb4(%ebp)
  402f30:	83 7d b4 00          	cmpl   $0x0,0xffffffb4(%ebp)
  402f34:	79 08                	jns    402f3e <_PsSuspendProcess+0x46>
  402f36:	8b 45 b4             	mov    0xffffffb4(%ebp),%eax
  402f39:	89 45 b0             	mov    %eax,0xffffffb0(%ebp)
  402f3c:	eb 2a                	jmp    402f68 <_PsSuspendProcess+0x70>
  402f3e:	c7 44 24 04 b8 0b 00 	movl   $0xbb8,0x4(%esp)
  402f45:	00 
  402f46:	8d 45 b8             	lea    0xffffffb8(%ebp),%eax
  402f49:	89 04 24             	mov    %eax,(%esp)
  402f4c:	e8 09 e9 ff ff       	call   40185a <_Api_Receive>
  402f51:	89 45 b4             	mov    %eax,0xffffffb4(%ebp)
  402f54:	83 7d b4 00          	cmpl   $0x0,0xffffffb4(%ebp)
  402f58:	79 08                	jns    402f62 <_PsSuspendProcess+0x6a>
  402f5a:	8b 45 b4             	mov    0xffffffb4(%ebp),%eax
  402f5d:	89 45 b0             	mov    %eax,0xffffffb0(%ebp)
  402f60:	eb 06                	jmp    402f68 <_PsSuspendProcess+0x70>
  402f62:	8b 45 ec             	mov    0xffffffec(%ebp),%eax
  402f65:	89 45 b0             	mov    %eax,0xffffffb0(%ebp)
  402f68:	8b 45 b0             	mov    0xffffffb0(%ebp),%eax
  402f6b:	c9                   	leave  
  402f6c:	c3                   	ret    

00402f6d <_PsResumeProcess>:
  402f6d:	55                   	push   %ebp
  402f6e:	89 e5                	mov    %esp,%ebp
  402f70:	83 ec 68             	sub    $0x68,%esp
  402f73:	c7 04 24 02 00 00 00 	movl   $0x2,(%esp)
  402f7a:	e8 02 06 00 00       	call   403581 <_SmGetServiceThreadById>
  402f7f:	89 45 b8             	mov    %eax,0xffffffb8(%ebp)
  402f82:	c7 45 c0 04 00 00 00 	movl   $0x4,0xffffffc0(%ebp)
  402f89:	8b 45 08             	mov    0x8(%ebp),%eax
  402f8c:	89 45 c4             	mov    %eax,0xffffffc4(%ebp)
  402f8f:	c7 44 24 04 00 00 00 	movl   $0x0,0x4(%esp)
  402f96:	00 
  402f97:	8d 45 b8             	lea    0xffffffb8(%ebp),%eax
  402f9a:	89 04 24             	mov    %eax,(%esp)
  402f9d:	e8 98 e8 ff ff       	call   40183a <_Api_Send>
  402fa2:	89 45 b4             	mov    %eax,0xffffffb4(%ebp)
  402fa5:	83 7d b4 00          	cmpl   $0x0,0xffffffb4(%ebp)
  402fa9:	79 08                	jns    402fb3 <_PsResumeProcess+0x46>
  402fab:	8b 45 b4             	mov    0xffffffb4(%ebp),%eax
  402fae:	89 45 b0             	mov    %eax,0xffffffb0(%ebp)
  402fb1:	eb 2a                	jmp    402fdd <_PsResumeProcess+0x70>
  402fb3:	c7 44 24 04 b8 0b 00 	movl   $0xbb8,0x4(%esp)
  402fba:	00 
  402fbb:	8d 45 b8             	lea    0xffffffb8(%ebp),%eax
  402fbe:	89 04 24             	mov    %eax,(%esp)
  402fc1:	e8 94 e8 ff ff       	call   40185a <_Api_Receive>
  402fc6:	89 45 b4             	mov    %eax,0xffffffb4(%ebp)
  402fc9:	83 7d b4 00          	cmpl   $0x0,0xffffffb4(%ebp)
  402fcd:	79 08                	jns    402fd7 <_PsResumeProcess+0x6a>
  402fcf:	8b 45 b4             	mov    0xffffffb4(%ebp),%eax
  402fd2:	89 45 b0             	mov    %eax,0xffffffb0(%ebp)
  402fd5:	eb 06                	jmp    402fdd <_PsResumeProcess+0x70>
  402fd7:	8b 45 ec             	mov    0xffffffec(%ebp),%eax
  402fda:	89 45 b0             	mov    %eax,0xffffffb0(%ebp)
  402fdd:	8b 45 b0             	mov    0xffffffb0(%ebp),%eax
  402fe0:	c9                   	leave  
  402fe1:	c3                   	ret    

00402fe2 <_PsCreateThread>:
  402fe2:	55                   	push   %ebp
  402fe3:	89 e5                	mov    %esp,%ebp
  402fe5:	83 ec 68             	sub    $0x68,%esp
  402fe8:	c7 04 24 02 00 00 00 	movl   $0x2,(%esp)
  402fef:	e8 8d 05 00 00       	call   403581 <_SmGetServiceThreadById>
  402ff4:	89 45 b8             	mov    %eax,0xffffffb8(%ebp)
  402ff7:	c7 45 c0 05 00 00 00 	movl   $0x5,0xffffffc0(%ebp)
  402ffe:	8b 45 08             	mov    0x8(%ebp),%eax
  403001:	89 45 c4             	mov    %eax,0xffffffc4(%ebp)
  403004:	c7 44 24 04 00 00 00 	movl   $0x0,0x4(%esp)
  40300b:	00 
  40300c:	8d 45 b8             	lea    0xffffffb8(%ebp),%eax
  40300f:	89 04 24             	mov    %eax,(%esp)
  403012:	e8 23 e8 ff ff       	call   40183a <_Api_Send>
  403017:	89 45 b4             	mov    %eax,0xffffffb4(%ebp)
  40301a:	83 7d b4 00          	cmpl   $0x0,0xffffffb4(%ebp)
  40301e:	79 08                	jns    403028 <_PsCreateThread+0x46>
  403020:	8b 45 b4             	mov    0xffffffb4(%ebp),%eax
  403023:	89 45 b0             	mov    %eax,0xffffffb0(%ebp)
  403026:	eb 2a                	jmp    403052 <_PsCreateThread+0x70>
  403028:	c7 44 24 04 b8 0b 00 	movl   $0xbb8,0x4(%esp)
  40302f:	00 
  403030:	8d 45 b8             	lea    0xffffffb8(%ebp),%eax
  403033:	89 04 24             	mov    %eax,(%esp)
  403036:	e8 1f e8 ff ff       	call   40185a <_Api_Receive>
  40303b:	89 45 b4             	mov    %eax,0xffffffb4(%ebp)
  40303e:	83 7d b4 00          	cmpl   $0x0,0xffffffb4(%ebp)
  403042:	79 08                	jns    40304c <_PsCreateThread+0x6a>
  403044:	8b 45 b4             	mov    0xffffffb4(%ebp),%eax
  403047:	89 45 b0             	mov    %eax,0xffffffb0(%ebp)
  40304a:	eb 06                	jmp    403052 <_PsCreateThread+0x70>
  40304c:	8b 45 ec             	mov    0xffffffec(%ebp),%eax
  40304f:	89 45 b0             	mov    %eax,0xffffffb0(%ebp)
  403052:	8b 45 b0             	mov    0xffffffb0(%ebp),%eax
  403055:	c9                   	leave  
  403056:	c3                   	ret    

00403057 <_PsTerminateThread>:
  403057:	55                   	push   %ebp
  403058:	89 e5                	mov    %esp,%ebp
  40305a:	83 ec 68             	sub    $0x68,%esp
  40305d:	c7 04 24 02 00 00 00 	movl   $0x2,(%esp)
  403064:	e8 18 05 00 00       	call   403581 <_SmGetServiceThreadById>
  403069:	89 45 b8             	mov    %eax,0xffffffb8(%ebp)
  40306c:	c7 45 c0 06 00 00 00 	movl   $0x6,0xffffffc0(%ebp)
  403073:	8b 45 08             	mov    0x8(%ebp),%eax
  403076:	89 45 c4             	mov    %eax,0xffffffc4(%ebp)
  403079:	8b 45 0c             	mov    0xc(%ebp),%eax
  40307c:	89 45 c8             	mov    %eax,0xffffffc8(%ebp)
  40307f:	c7 44 24 04 00 00 00 	movl   $0x0,0x4(%esp)
  403086:	00 
  403087:	8d 45 b8             	lea    0xffffffb8(%ebp),%eax
  40308a:	89 04 24             	mov    %eax,(%esp)
  40308d:	e8 a8 e7 ff ff       	call   40183a <_Api_Send>
  403092:	89 45 b4             	mov    %eax,0xffffffb4(%ebp)
  403095:	83 7d b4 00          	cmpl   $0x0,0xffffffb4(%ebp)
  403099:	79 08                	jns    4030a3 <_PsTerminateThread+0x4c>
  40309b:	8b 45 b4             	mov    0xffffffb4(%ebp),%eax
  40309e:	89 45 b0             	mov    %eax,0xffffffb0(%ebp)
  4030a1:	eb 2a                	jmp    4030cd <_PsTerminateThread+0x76>
  4030a3:	c7 44 24 04 b8 0b 00 	movl   $0xbb8,0x4(%esp)
  4030aa:	00 
  4030ab:	8d 45 b8             	lea    0xffffffb8(%ebp),%eax
  4030ae:	89 04 24             	mov    %eax,(%esp)
  4030b1:	e8 a4 e7 ff ff       	call   40185a <_Api_Receive>
  4030b6:	89 45 b4             	mov    %eax,0xffffffb4(%ebp)
  4030b9:	83 7d b4 00          	cmpl   $0x0,0xffffffb4(%ebp)
  4030bd:	79 08                	jns    4030c7 <_PsTerminateThread+0x70>
  4030bf:	8b 45 b4             	mov    0xffffffb4(%ebp),%eax
  4030c2:	89 45 b0             	mov    %eax,0xffffffb0(%ebp)
  4030c5:	eb 06                	jmp    4030cd <_PsTerminateThread+0x76>
  4030c7:	8b 45 ec             	mov    0xffffffec(%ebp),%eax
  4030ca:	89 45 b0             	mov    %eax,0xffffffb0(%ebp)
  4030cd:	8b 45 b0             	mov    0xffffffb0(%ebp),%eax
  4030d0:	c9                   	leave  
  4030d1:	c3                   	ret    

004030d2 <_PsSuspendThread>:
  4030d2:	55                   	push   %ebp
  4030d3:	89 e5                	mov    %esp,%ebp
  4030d5:	83 ec 08             	sub    $0x8,%esp
  4030d8:	8b 45 08             	mov    0x8(%ebp),%eax
  4030db:	89 04 24             	mov    %eax,(%esp)
  4030de:	e8 7c ef ff ff       	call   40205f <_SysSuspendThread>
  4030e3:	c9                   	leave  
  4030e4:	c3                   	ret    

004030e5 <_PsResumeThread>:
  4030e5:	55                   	push   %ebp
  4030e6:	89 e5                	mov    %esp,%ebp
  4030e8:	83 ec 08             	sub    $0x8,%esp
  4030eb:	8b 45 08             	mov    0x8(%ebp),%eax
  4030ee:	89 04 24             	mov    %eax,(%esp)
  4030f1:	e8 0d ef ff ff       	call   402003 <_SysResumeThread>
  4030f6:	c9                   	leave  
  4030f7:	c3                   	ret    

004030f8 <_PsLoadModule>:
  4030f8:	55                   	push   %ebp
  4030f9:	89 e5                	mov    %esp,%ebp
  4030fb:	57                   	push   %edi
  4030fc:	83 ec 64             	sub    $0x64,%esp
  4030ff:	8d 7d b8             	lea    0xffffffb8(%ebp),%edi
  403102:	fc                   	cld    
  403103:	ba 00 00 00 00       	mov    $0x0,%edx
  403108:	b8 10 00 00 00       	mov    $0x10,%eax
  40310d:	89 c1                	mov    %eax,%ecx
  40310f:	89 d0                	mov    %edx,%eax
  403111:	f3 ab                	repz stos %eax,%es:(%edi)
  403113:	c7 04 24 02 00 00 00 	movl   $0x2,(%esp)
  40311a:	e8 62 04 00 00       	call   403581 <_SmGetServiceThreadById>
  40311f:	89 45 b8             	mov    %eax,0xffffffb8(%ebp)
  403122:	c7 45 c0 01 10 00 00 	movl   $0x1001,0xffffffc0(%ebp)
  403129:	e8 44 f0 ff ff       	call   402172 <_SysGetCurrentSpaceId>
  40312e:	c7 44 24 0c 04 00 00 	movl   $0x4,0xc(%esp)
  403135:	00 
  403136:	c7 44 24 08 02 00 00 	movl   $0x2,0x8(%esp)
  40313d:	00 
  40313e:	c7 44 24 04 00 10 00 	movl   $0x1000,0x4(%esp)
  403145:	00 
  403146:	89 04 24             	mov    %eax,(%esp)
  403149:	e8 6c f1 ff ff       	call   4022ba <_SysAllocateMemory>
  40314e:	89 45 f0             	mov    %eax,0xfffffff0(%ebp)
  403151:	8b 45 08             	mov    0x8(%ebp),%eax
  403154:	89 44 24 04          	mov    %eax,0x4(%esp)
  403158:	8b 45 f0             	mov    0xfffffff0(%ebp),%eax
  40315b:	89 04 24             	mov    %eax,(%esp)
  40315e:	e8 0d 05 00 00       	call   403670 <_strcpy>
  403163:	c7 44 24 04 00 00 00 	movl   $0x0,0x4(%esp)
  40316a:	00 
  40316b:	8d 45 b8             	lea    0xffffffb8(%ebp),%eax
  40316e:	89 04 24             	mov    %eax,(%esp)
  403171:	e8 c4 e6 ff ff       	call   40183a <_Api_Send>
  403176:	89 45 b4             	mov    %eax,0xffffffb4(%ebp)
  403179:	83 7d b4 00          	cmpl   $0x0,0xffffffb4(%ebp)
  40317d:	79 08                	jns    403187 <_PsLoadModule+0x8f>
  40317f:	8b 45 b4             	mov    0xffffffb4(%ebp),%eax
  403182:	89 45 b0             	mov    %eax,0xffffffb0(%ebp)
  403185:	eb 40                	jmp    4031c7 <_PsLoadModule+0xcf>
  403187:	c7 44 24 04 ff ff ff 	movl   $0xffffffff,0x4(%esp)
  40318e:	ff 
  40318f:	8d 45 b8             	lea    0xffffffb8(%ebp),%eax
  403192:	89 04 24             	mov    %eax,(%esp)
  403195:	e8 c0 e6 ff ff       	call   40185a <_Api_Receive>
  40319a:	89 45 b4             	mov    %eax,0xffffffb4(%ebp)
  40319d:	e8 d0 ef ff ff       	call   402172 <_SysGetCurrentSpaceId>
  4031a2:	89 c2                	mov    %eax,%edx
  4031a4:	8b 45 f0             	mov    0xfffffff0(%ebp),%eax
  4031a7:	89 44 24 04          	mov    %eax,0x4(%esp)
  4031ab:	89 14 24             	mov    %edx,(%esp)
  4031ae:	e8 da f1 ff ff       	call   40238d <_SysFreeMemory>
  4031b3:	83 7d b4 00          	cmpl   $0x0,0xffffffb4(%ebp)
  4031b7:	79 08                	jns    4031c1 <_PsLoadModule+0xc9>
  4031b9:	8b 45 b4             	mov    0xffffffb4(%ebp),%eax
  4031bc:	89 45 b0             	mov    %eax,0xffffffb0(%ebp)
  4031bf:	eb 06                	jmp    4031c7 <_PsLoadModule+0xcf>
  4031c1:	8b 45 ec             	mov    0xffffffec(%ebp),%eax
  4031c4:	89 45 b0             	mov    %eax,0xffffffb0(%ebp)
  4031c7:	8b 45 b0             	mov    0xffffffb0(%ebp),%eax
  4031ca:	83 c4 64             	add    $0x64,%esp
  4031cd:	5f                   	pop    %edi
  4031ce:	5d                   	pop    %ebp
  4031cf:	c3                   	ret    

004031d0 <_PsFreeModule>:
  4031d0:	55                   	push   %ebp
  4031d1:	89 e5                	mov    %esp,%ebp
  4031d3:	57                   	push   %edi
  4031d4:	83 ec 64             	sub    $0x64,%esp
  4031d7:	8d 7d b8             	lea    0xffffffb8(%ebp),%edi
  4031da:	fc                   	cld    
  4031db:	ba 00 00 00 00       	mov    $0x0,%edx
  4031e0:	b8 10 00 00 00       	mov    $0x10,%eax
  4031e5:	89 c1                	mov    %eax,%ecx
  4031e7:	89 d0                	mov    %edx,%eax
  4031e9:	f3 ab                	repz stos %eax,%es:(%edi)
  4031eb:	c7 04 24 02 00 00 00 	movl   $0x2,(%esp)
  4031f2:	e8 8a 03 00 00       	call   403581 <_SmGetServiceThreadById>
  4031f7:	89 45 b8             	mov    %eax,0xffffffb8(%ebp)
  4031fa:	c7 45 c0 04 10 00 00 	movl   $0x1004,0xffffffc0(%ebp)
  403201:	c7 44 24 04 00 00 00 	movl   $0x0,0x4(%esp)
  403208:	00 
  403209:	8d 45 b8             	lea    0xffffffb8(%ebp),%eax
  40320c:	89 04 24             	mov    %eax,(%esp)
  40320f:	e8 26 e6 ff ff       	call   40183a <_Api_Send>
  403214:	89 45 b4             	mov    %eax,0xffffffb4(%ebp)
  403217:	83 7d b4 00          	cmpl   $0x0,0xffffffb4(%ebp)
  40321b:	79 02                	jns    40321f <_PsFreeModule+0x4f>
  40321d:	eb 16                	jmp    403235 <_PsFreeModule+0x65>
  40321f:	c7 44 24 04 b8 0b 00 	movl   $0xbb8,0x4(%esp)
  403226:	00 
  403227:	8d 45 b8             	lea    0xffffffb8(%ebp),%eax
  40322a:	89 04 24             	mov    %eax,(%esp)
  40322d:	e8 28 e6 ff ff       	call   40185a <_Api_Receive>
  403232:	89 45 b4             	mov    %eax,0xffffffb4(%ebp)
  403235:	83 c4 64             	add    $0x64,%esp
  403238:	5f                   	pop    %edi
  403239:	5d                   	pop    %ebp
  40323a:	c3                   	ret    

0040323b <_PsGetModule>:
  40323b:	55                   	push   %ebp
  40323c:	89 e5                	mov    %esp,%ebp
  40323e:	57                   	push   %edi
  40323f:	83 ec 64             	sub    $0x64,%esp
  403242:	8d 7d b8             	lea    0xffffffb8(%ebp),%edi
  403245:	fc                   	cld    
  403246:	ba 00 00 00 00       	mov    $0x0,%edx
  40324b:	b8 10 00 00 00       	mov    $0x10,%eax
  403250:	89 c1                	mov    %eax,%ecx
  403252:	89 d0                	mov    %edx,%eax
  403254:	f3 ab                	repz stos %eax,%es:(%edi)
  403256:	c7 04 24 02 00 00 00 	movl   $0x2,(%esp)
  40325d:	e8 1f 03 00 00       	call   403581 <_SmGetServiceThreadById>
  403262:	89 45 b8             	mov    %eax,0xffffffb8(%ebp)
  403265:	c7 45 c0 02 10 00 00 	movl   $0x1002,0xffffffc0(%ebp)
  40326c:	e8 01 ef ff ff       	call   402172 <_SysGetCurrentSpaceId>
  403271:	c7 44 24 0c 04 00 00 	movl   $0x4,0xc(%esp)
  403278:	00 
  403279:	c7 44 24 08 02 00 00 	movl   $0x2,0x8(%esp)
  403280:	00 
  403281:	c7 44 24 04 00 10 00 	movl   $0x1000,0x4(%esp)
  403288:	00 
  403289:	89 04 24             	mov    %eax,(%esp)
  40328c:	e8 29 f0 ff ff       	call   4022ba <_SysAllocateMemory>
  403291:	89 45 f0             	mov    %eax,0xfffffff0(%ebp)
  403294:	8b 45 0c             	mov    0xc(%ebp),%eax
  403297:	89 44 24 04          	mov    %eax,0x4(%esp)
  40329b:	8b 45 f0             	mov    0xfffffff0(%ebp),%eax
  40329e:	89 04 24             	mov    %eax,(%esp)
  4032a1:	e8 ca 03 00 00       	call   403670 <_strcpy>
  4032a6:	c7 44 24 04 00 00 00 	movl   $0x0,0x4(%esp)
  4032ad:	00 
  4032ae:	8d 45 b8             	lea    0xffffffb8(%ebp),%eax
  4032b1:	89 04 24             	mov    %eax,(%esp)
  4032b4:	e8 81 e5 ff ff       	call   40183a <_Api_Send>
  4032b9:	89 45 b4             	mov    %eax,0xffffffb4(%ebp)
  4032bc:	83 7d b4 00          	cmpl   $0x0,0xffffffb4(%ebp)
  4032c0:	79 08                	jns    4032ca <_PsGetModule+0x8f>
  4032c2:	8b 45 b4             	mov    0xffffffb4(%ebp),%eax
  4032c5:	89 45 b0             	mov    %eax,0xffffffb0(%ebp)
  4032c8:	eb 65                	jmp    40332f <_PsGetModule+0xf4>
  4032ca:	c7 44 24 04 b8 0b 00 	movl   $0xbb8,0x4(%esp)
  4032d1:	00 
  4032d2:	8d 45 b8             	lea    0xffffffb8(%ebp),%eax
  4032d5:	89 04 24             	mov    %eax,(%esp)
  4032d8:	e8 7d e5 ff ff       	call   40185a <_Api_Receive>
  4032dd:	89 45 b4             	mov    %eax,0xffffffb4(%ebp)
  4032e0:	83 7d ec 00          	cmpl   $0x0,0xffffffec(%ebp)
  4032e4:	78 1f                	js     403305 <_PsGetModule+0xca>
  4032e6:	83 7d 0c 00          	cmpl   $0x0,0xc(%ebp)
  4032ea:	74 19                	je     403305 <_PsGetModule+0xca>
  4032ec:	8b 45 10             	mov    0x10(%ebp),%eax
  4032ef:	89 44 24 08          	mov    %eax,0x8(%esp)
  4032f3:	8b 45 f0             	mov    0xfffffff0(%ebp),%eax
  4032f6:	89 44 24 04          	mov    %eax,0x4(%esp)
  4032fa:	8b 45 0c             	mov    0xc(%ebp),%eax
  4032fd:	89 04 24             	mov    %eax,(%esp)
  403300:	e8 84 03 00 00       	call   403689 <_strncpy>
  403305:	e8 68 ee ff ff       	call   402172 <_SysGetCurrentSpaceId>
  40330a:	89 c2                	mov    %eax,%edx
  40330c:	8b 45 f0             	mov    0xfffffff0(%ebp),%eax
  40330f:	89 44 24 04          	mov    %eax,0x4(%esp)
  403313:	89 14 24             	mov    %edx,(%esp)
  403316:	e8 72 f0 ff ff       	call   40238d <_SysFreeMemory>
  40331b:	83 7d b4 00          	cmpl   $0x0,0xffffffb4(%ebp)
  40331f:	79 08                	jns    403329 <_PsGetModule+0xee>
  403321:	8b 45 b4             	mov    0xffffffb4(%ebp),%eax
  403324:	89 45 b0             	mov    %eax,0xffffffb0(%ebp)
  403327:	eb 06                	jmp    40332f <_PsGetModule+0xf4>
  403329:	8b 45 ec             	mov    0xffffffec(%ebp),%eax
  40332c:	89 45 b0             	mov    %eax,0xffffffb0(%ebp)
  40332f:	8b 45 b0             	mov    0xffffffb0(%ebp),%eax
  403332:	83 c4 64             	add    $0x64,%esp
  403335:	5f                   	pop    %edi
  403336:	5d                   	pop    %ebp
  403337:	c3                   	ret    

00403338 <_PsGetProcedure>:
  403338:	55                   	push   %ebp
  403339:	89 e5                	mov    %esp,%ebp
  40333b:	57                   	push   %edi
  40333c:	83 ec 64             	sub    $0x64,%esp
  40333f:	8d 7d b8             	lea    0xffffffb8(%ebp),%edi
  403342:	fc                   	cld    
  403343:	ba 00 00 00 00       	mov    $0x0,%edx
  403348:	b8 10 00 00 00       	mov    $0x10,%eax
  40334d:	89 c1                	mov    %eax,%ecx
  40334f:	89 d0                	mov    %edx,%eax
  403351:	f3 ab                	repz stos %eax,%es:(%edi)
  403353:	c7 04 24 02 00 00 00 	movl   $0x2,(%esp)
  40335a:	e8 22 02 00 00       	call   403581 <_SmGetServiceThreadById>
  40335f:	89 45 b8             	mov    %eax,0xffffffb8(%ebp)
  403362:	c7 45 c0 03 10 00 00 	movl   $0x1003,0xffffffc0(%ebp)
  403369:	8b 45 08             	mov    0x8(%ebp),%eax
  40336c:	89 45 c4             	mov    %eax,0xffffffc4(%ebp)
  40336f:	e8 fe ed ff ff       	call   402172 <_SysGetCurrentSpaceId>
  403374:	c7 44 24 0c 04 00 00 	movl   $0x4,0xc(%esp)
  40337b:	00 
  40337c:	c7 44 24 08 02 00 00 	movl   $0x2,0x8(%esp)
  403383:	00 
  403384:	c7 44 24 04 00 10 00 	movl   $0x1000,0x4(%esp)
  40338b:	00 
  40338c:	89 04 24             	mov    %eax,(%esp)
  40338f:	e8 26 ef ff ff       	call   4022ba <_SysAllocateMemory>
  403394:	89 45 f0             	mov    %eax,0xfffffff0(%ebp)
  403397:	8b 45 0c             	mov    0xc(%ebp),%eax
  40339a:	89 44 24 04          	mov    %eax,0x4(%esp)
  40339e:	8b 45 f0             	mov    0xfffffff0(%ebp),%eax
  4033a1:	89 04 24             	mov    %eax,(%esp)
  4033a4:	e8 c7 02 00 00       	call   403670 <_strcpy>
  4033a9:	c7 44 24 04 00 00 00 	movl   $0x0,0x4(%esp)
  4033b0:	00 
  4033b1:	8d 45 b8             	lea    0xffffffb8(%ebp),%eax
  4033b4:	89 04 24             	mov    %eax,(%esp)
  4033b7:	e8 7e e4 ff ff       	call   40183a <_Api_Send>
  4033bc:	89 45 b4             	mov    %eax,0xffffffb4(%ebp)
  4033bf:	83 7d b4 00          	cmpl   $0x0,0xffffffb4(%ebp)
  4033c3:	79 09                	jns    4033ce <_PsGetProcedure+0x96>
  4033c5:	c7 45 b0 00 00 00 00 	movl   $0x0,0xffffffb0(%ebp)
  4033cc:	eb 41                	jmp    40340f <_PsGetProcedure+0xd7>
  4033ce:	c7 44 24 04 b8 0b 00 	movl   $0xbb8,0x4(%esp)
  4033d5:	00 
  4033d6:	8d 45 b8             	lea    0xffffffb8(%ebp),%eax
  4033d9:	89 04 24             	mov    %eax,(%esp)
  4033dc:	e8 79 e4 ff ff       	call   40185a <_Api_Receive>
  4033e1:	89 45 b4             	mov    %eax,0xffffffb4(%ebp)
  4033e4:	e8 89 ed ff ff       	call   402172 <_SysGetCurrentSpaceId>
  4033e9:	89 c2                	mov    %eax,%edx
  4033eb:	8b 45 f0             	mov    0xfffffff0(%ebp),%eax
  4033ee:	89 44 24 04          	mov    %eax,0x4(%esp)
  4033f2:	89 14 24             	mov    %edx,(%esp)
  4033f5:	e8 93 ef ff ff       	call   40238d <_SysFreeMemory>
  4033fa:	83 7d b4 00          	cmpl   $0x0,0xffffffb4(%ebp)
  4033fe:	79 09                	jns    403409 <_PsGetProcedure+0xd1>
  403400:	c7 45 b0 00 00 00 00 	movl   $0x0,0xffffffb0(%ebp)
  403407:	eb 06                	jmp    40340f <_PsGetProcedure+0xd7>
  403409:	8b 45 ec             	mov    0xffffffec(%ebp),%eax
  40340c:	89 45 b0             	mov    %eax,0xffffffb0(%ebp)
  40340f:	8b 45 b0             	mov    0xffffffb0(%ebp),%eax
  403412:	83 c4 64             	add    $0x64,%esp
  403415:	5f                   	pop    %edi
  403416:	5d                   	pop    %ebp
  403417:	c3                   	ret    
  403418:	90                   	nop    
  403419:	90                   	nop    
  40341a:	90                   	nop    
  40341b:	90                   	nop    
  40341c:	90                   	nop    
  40341d:	90                   	nop    
  40341e:	90                   	nop    
  40341f:	90                   	nop    

00403420 <_GetServiceListPtr>:
  403420:	55                   	push   %ebp
  403421:	89 e5                	mov    %esp,%ebp
  403423:	83 ec 08             	sub    $0x8,%esp
  403426:	e8 8a e7 ff ff       	call   401bb5 <_SysGetSystemInformation>
  40342b:	89 45 fc             	mov    %eax,0xfffffffc(%ebp)
  40342e:	83 7d fc 00          	cmpl   $0x0,0xfffffffc(%ebp)
  403432:	75 0e                	jne    403442 <_GetServiceListPtr+0x22>
  403434:	c7 04 24 00 72 40 00 	movl   $0x407200,(%esp)
  40343b:	e8 70 f8 ff ff       	call   402cb0 <_printf>
  403440:	eb 0e                	jmp    403450 <_GetServiceListPtr+0x30>
  403442:	8b 45 fc             	mov    0xfffffffc(%ebp),%eax
  403445:	8b 80 04 01 00 00    	mov    0x104(%eax),%eax
  40344b:	a3 a0 80 40 00       	mov    %eax,0x4080a0
  403450:	c9                   	leave  
  403451:	c3                   	ret    

00403452 <_SmNotifyService>:
  403452:	55                   	push   %ebp
  403453:	89 e5                	mov    %esp,%ebp
  403455:	57                   	push   %edi
  403456:	83 ec 74             	sub    $0x74,%esp
  403459:	c7 04 24 2c 72 40 00 	movl   $0x40722c,(%esp)
  403460:	e8 6b 01 00 00       	call   4035d0 <_SmGetServiceThreadByName>
  403465:	89 45 f4             	mov    %eax,0xfffffff4(%ebp)
  403468:	83 7d f4 00          	cmpl   $0x0,0xfffffff4(%ebp)
  40346c:	75 18                	jne    403486 <_SmNotifyService+0x34>
  40346e:	c7 04 24 3c 72 40 00 	movl   $0x40723c,(%esp)
  403475:	e8 36 f8 ff ff       	call   402cb0 <_printf>
  40347a:	c7 45 a0 fb ff ff ff 	movl   $0xfffffffb,0xffffffa0(%ebp)
  403481:	e9 99 00 00 00       	jmp    40351f <_SmNotifyService+0xcd>
  403486:	8d 7d a8             	lea    0xffffffa8(%ebp),%edi
  403489:	fc                   	cld    
  40348a:	ba 00 00 00 00       	mov    $0x0,%edx
  40348f:	b8 10 00 00 00       	mov    $0x10,%eax
  403494:	89 c1                	mov    %eax,%ecx
  403496:	89 d0                	mov    %edx,%eax
  403498:	f3 ab                	repz stos %eax,%es:(%edi)
  40349a:	8b 45 f4             	mov    0xfffffff4(%ebp),%eax
  40349d:	89 45 a8             	mov    %eax,0xffffffa8(%ebp)
  4034a0:	c7 45 b0 01 00 00 00 	movl   $0x1,0xffffffb0(%ebp)
  4034a7:	8b 45 08             	mov    0x8(%ebp),%eax
  4034aa:	89 45 b4             	mov    %eax,0xffffffb4(%ebp)
  4034ad:	8b 45 0c             	mov    0xc(%ebp),%eax
  4034b0:	89 45 b8             	mov    %eax,0xffffffb8(%ebp)
  4034b3:	e8 be e9 ff ff       	call   401e76 <_SysGetCurrentThreadId>
  4034b8:	89 45 bc             	mov    %eax,0xffffffbc(%ebp)
  4034bb:	8b 45 10             	mov    0x10(%ebp),%eax
  4034be:	89 44 24 04          	mov    %eax,0x4(%esp)
  4034c2:	8d 45 a8             	lea    0xffffffa8(%ebp),%eax
  4034c5:	83 c0 18             	add    $0x18,%eax
  4034c8:	89 04 24             	mov    %eax,(%esp)
  4034cb:	e8 a0 01 00 00       	call   403670 <_strcpy>
  4034d0:	c7 44 24 04 00 00 00 	movl   $0x0,0x4(%esp)
  4034d7:	00 
  4034d8:	8d 45 a8             	lea    0xffffffa8(%ebp),%eax
  4034db:	89 04 24             	mov    %eax,(%esp)
  4034de:	e8 57 e3 ff ff       	call   40183a <_Api_Send>
  4034e3:	c7 44 24 04 b8 0b 00 	movl   $0xbb8,0x4(%esp)
  4034ea:	00 
  4034eb:	8d 45 a8             	lea    0xffffffa8(%ebp),%eax
  4034ee:	89 04 24             	mov    %eax,(%esp)
  4034f1:	e8 64 e3 ff ff       	call   40185a <_Api_Receive>
  4034f6:	89 45 a4             	mov    %eax,0xffffffa4(%ebp)
  4034f9:	83 7d a4 f3          	cmpl   $0xfffffff3,0xffffffa4(%ebp)
  4034fd:	75 0c                	jne    40350b <_SmNotifyService+0xb9>
  4034ff:	c7 04 24 64 72 40 00 	movl   $0x407264,(%esp)
  403506:	e8 a5 f7 ff ff       	call   402cb0 <_printf>
  40350b:	83 7d a4 00          	cmpl   $0x0,0xffffffa4(%ebp)
  40350f:	79 08                	jns    403519 <_SmNotifyService+0xc7>
  403511:	8b 45 a4             	mov    0xffffffa4(%ebp),%eax
  403514:	89 45 a0             	mov    %eax,0xffffffa0(%ebp)
  403517:	eb 06                	jmp    40351f <_SmNotifyService+0xcd>
  403519:	8b 45 dc             	mov    0xffffffdc(%ebp),%eax
  40351c:	89 45 a0             	mov    %eax,0xffffffa0(%ebp)
  40351f:	8b 45 a0             	mov    0xffffffa0(%ebp),%eax
  403522:	83 c4 74             	add    $0x74,%esp
  403525:	5f                   	pop    %edi
  403526:	5d                   	pop    %ebp
  403527:	c3                   	ret    

00403528 <_SmRemoveService>:
  403528:	55                   	push   %ebp
  403529:	89 e5                	mov    %esp,%ebp
  40352b:	83 ec 28             	sub    $0x28,%esp
  40352e:	8b 45 08             	mov    0x8(%ebp),%eax
  403531:	89 04 24             	mov    %eax,(%esp)
  403534:	e8 48 00 00 00       	call   403581 <_SmGetServiceThreadById>
  403539:	89 45 fc             	mov    %eax,0xfffffffc(%ebp)
  40353c:	c7 45 f8 00 00 00 00 	movl   $0x0,0xfffffff8(%ebp)
  403543:	8d 45 f8             	lea    0xfffffff8(%ebp),%eax
  403546:	89 44 24 18          	mov    %eax,0x18(%esp)
  40354a:	c7 44 24 14 00 00 00 	movl   $0x0,0x14(%esp)
  403551:	00 
  403552:	c7 44 24 10 00 00 00 	movl   $0x0,0x10(%esp)
  403559:	00 
  40355a:	c7 44 24 0c 00 00 00 	movl   $0x0,0xc(%esp)
  403561:	00 
  403562:	8d 45 08             	lea    0x8(%ebp),%eax
  403565:	89 44 24 08          	mov    %eax,0x8(%esp)
  403569:	c7 44 24 04 02 00 00 	movl   $0x2,0x4(%esp)
  403570:	00 
  403571:	8b 45 fc             	mov    0xfffffffc(%ebp),%eax
  403574:	89 04 24             	mov    %eax,(%esp)
  403577:	e8 84 e3 ff ff       	call   401900 <_SendMessage>
  40357c:	8b 45 f8             	mov    0xfffffff8(%ebp),%eax
  40357f:	c9                   	leave  
  403580:	c3                   	ret    

00403581 <_SmGetServiceThreadById>:
  403581:	55                   	push   %ebp
  403582:	89 e5                	mov    %esp,%ebp
  403584:	83 ec 08             	sub    $0x8,%esp
  403587:	83 3d a0 80 40 00 00 	cmpl   $0x0,0x4080a0
  40358e:	75 05                	jne    403595 <_SmGetServiceThreadById+0x14>
  403590:	e8 8b fe ff ff       	call   403420 <_GetServiceListPtr>
  403595:	83 7d 08 7f          	cmpl   $0x7f,0x8(%ebp)
  403599:	77 29                	ja     4035c4 <_SmGetServiceThreadById+0x43>
  40359b:	8b 45 08             	mov    0x8(%ebp),%eax
  40359e:	89 c2                	mov    %eax,%edx
  4035a0:	c1 e2 05             	shl    $0x5,%edx
  4035a3:	a1 a0 80 40 00       	mov    0x4080a0,%eax
  4035a8:	83 3c 02 00          	cmpl   $0x0,(%edx,%eax,1)
  4035ac:	74 16                	je     4035c4 <_SmGetServiceThreadById+0x43>
  4035ae:	8b 45 08             	mov    0x8(%ebp),%eax
  4035b1:	89 c2                	mov    %eax,%edx
  4035b3:	c1 e2 05             	shl    $0x5,%edx
  4035b6:	a1 a0 80 40 00       	mov    0x4080a0,%eax
  4035bb:	8b 44 02 08          	mov    0x8(%edx,%eax,1),%eax
  4035bf:	89 45 fc             	mov    %eax,0xfffffffc(%ebp)
  4035c2:	eb 07                	jmp    4035cb <_SmGetServiceThreadById+0x4a>
  4035c4:	c7 45 fc 00 00 00 00 	movl   $0x0,0xfffffffc(%ebp)
  4035cb:	8b 45 fc             	mov    0xfffffffc(%ebp),%eax
  4035ce:	c9                   	leave  
  4035cf:	c3                   	ret    

004035d0 <_SmGetServiceThreadByName>:
  4035d0:	55                   	push   %ebp
  4035d1:	89 e5                	mov    %esp,%ebp
  4035d3:	83 ec 18             	sub    $0x18,%esp
  4035d6:	83 3d a0 80 40 00 00 	cmpl   $0x0,0x4080a0
  4035dd:	75 05                	jne    4035e4 <_SmGetServiceThreadByName+0x14>
  4035df:	e8 3c fe ff ff       	call   403420 <_GetServiceListPtr>
  4035e4:	c7 45 fc 00 00 00 00 	movl   $0x0,0xfffffffc(%ebp)
  4035eb:	83 7d fc 7f          	cmpl   $0x7f,0xfffffffc(%ebp)
  4035ef:	77 47                	ja     403638 <_SmGetServiceThreadByName+0x68>
  4035f1:	c7 44 24 08 14 00 00 	movl   $0x14,0x8(%esp)
  4035f8:	00 
  4035f9:	8b 45 08             	mov    0x8(%ebp),%eax
  4035fc:	89 44 24 04          	mov    %eax,0x4(%esp)
  403600:	8b 45 fc             	mov    0xfffffffc(%ebp),%eax
  403603:	c1 e0 05             	shl    $0x5,%eax
  403606:	03 05 a0 80 40 00    	add    0x4080a0,%eax
  40360c:	83 c0 0c             	add    $0xc,%eax
  40360f:	89 04 24             	mov    %eax,(%esp)
  403612:	e8 0d 01 00 00       	call   403724 <_strncmp>
  403617:	85 c0                	test   %eax,%eax
  403619:	75 16                	jne    403631 <_SmGetServiceThreadByName+0x61>
  40361b:	8b 45 fc             	mov    0xfffffffc(%ebp),%eax
  40361e:	89 c2                	mov    %eax,%edx
  403620:	c1 e2 05             	shl    $0x5,%edx
  403623:	a1 a0 80 40 00       	mov    0x4080a0,%eax
  403628:	8b 44 02 08          	mov    0x8(%edx,%eax,1),%eax
  40362c:	89 45 f8             	mov    %eax,0xfffffff8(%ebp)
  40362f:	eb 0e                	jmp    40363f <_SmGetServiceThreadByName+0x6f>
  403631:	8d 45 fc             	lea    0xfffffffc(%ebp),%eax
  403634:	ff 00                	incl   (%eax)
  403636:	eb b3                	jmp    4035eb <_SmGetServiceThreadByName+0x1b>
  403638:	c7 45 f8 00 00 00 00 	movl   $0x0,0xfffffff8(%ebp)
  40363f:	8b 45 f8             	mov    0xfffffff8(%ebp),%eax
  403642:	c9                   	leave  
  403643:	c3                   	ret    
  403644:	90                   	nop    
  403645:	90                   	nop    
  403646:	90                   	nop    
  403647:	90                   	nop    
  403648:	90                   	nop    
  403649:	90                   	nop    
  40364a:	90                   	nop    
  40364b:	90                   	nop    
  40364c:	90                   	nop    
  40364d:	90                   	nop    
  40364e:	90                   	nop    
  40364f:	90                   	nop    

00403650 <_sleep>:
  403650:	55                   	push   %ebp
  403651:	89 e5                	mov    %esp,%ebp
  403653:	83 ec 08             	sub    $0x8,%esp
  403656:	8b 45 08             	mov    0x8(%ebp),%eax
  403659:	89 04 24             	mov    %eax,(%esp)
  40365c:	e8 03 e9 ff ff       	call   401f64 <_SysSleepThread>
  403661:	c9                   	leave  
  403662:	c3                   	ret    
  403663:	90                   	nop    
  403664:	90                   	nop    
  403665:	90                   	nop    
  403666:	90                   	nop    
  403667:	90                   	nop    
  403668:	90                   	nop    
  403669:	90                   	nop    
  40366a:	90                   	nop    
  40366b:	90                   	nop    
  40366c:	90                   	nop    
  40366d:	90                   	nop    
  40366e:	90                   	nop    
  40366f:	90                   	nop    

00403670 <_strcpy>:
  403670:	55                   	push   %ebp
  403671:	89 e5                	mov    %esp,%ebp
  403673:	57                   	push   %edi
  403674:	56                   	push   %esi
  403675:	8b 75 0c             	mov    0xc(%ebp),%esi
  403678:	8b 7d 08             	mov    0x8(%ebp),%edi
  40367b:	fc                   	cld    
  40367c:	ac                   	lods   %ds:(%esi),%al
  40367d:	aa                   	stos   %al,%es:(%edi)
  40367e:	84 c0                	test   %al,%al
  403680:	75 fa                	jne    40367c <_strcpy+0xc>
  403682:	8b 45 08             	mov    0x8(%ebp),%eax
  403685:	5e                   	pop    %esi
  403686:	5f                   	pop    %edi
  403687:	5d                   	pop    %ebp
  403688:	c3                   	ret    

00403689 <_strncpy>:
  403689:	55                   	push   %ebp
  40368a:	89 e5                	mov    %esp,%ebp
  40368c:	57                   	push   %edi
  40368d:	56                   	push   %esi
  40368e:	8b 75 0c             	mov    0xc(%ebp),%esi
  403691:	8b 7d 08             	mov    0x8(%ebp),%edi
  403694:	8b 4d 10             	mov    0x10(%ebp),%ecx
  403697:	fc                   	cld    
  403698:	49                   	dec    %ecx
  403699:	78 08                	js     4036a3 <_strncpy+0x1a>
  40369b:	ac                   	lods   %ds:(%esi),%al
  40369c:	aa                   	stos   %al,%es:(%edi)
  40369d:	84 c0                	test   %al,%al
  40369f:	75 f7                	jne    403698 <_strncpy+0xf>
  4036a1:	f3 aa                	repz stos %al,%es:(%edi)
  4036a3:	8b 45 08             	mov    0x8(%ebp),%eax
  4036a6:	5e                   	pop    %esi
  4036a7:	5f                   	pop    %edi
  4036a8:	5d                   	pop    %ebp
  4036a9:	c3                   	ret    

004036aa <_strcat>:
  4036aa:	55                   	push   %ebp
  4036ab:	89 e5                	mov    %esp,%ebp
  4036ad:	57                   	push   %edi
  4036ae:	56                   	push   %esi
  4036af:	8b 75 0c             	mov    0xc(%ebp),%esi
  4036b2:	8b 7d 08             	mov    0x8(%ebp),%edi
  4036b5:	b8 00 00 00 00       	mov    $0x0,%eax
  4036ba:	b9 ff ff ff ff       	mov    $0xffffffff,%ecx
  4036bf:	fc                   	cld    
  4036c0:	f2 ae                	repnz scas %es:(%edi),%al
  4036c2:	4f                   	dec    %edi
  4036c3:	ac                   	lods   %ds:(%esi),%al
  4036c4:	aa                   	stos   %al,%es:(%edi)
  4036c5:	84 c0                	test   %al,%al
  4036c7:	75 fa                	jne    4036c3 <_strcat+0x19>
  4036c9:	8b 45 08             	mov    0x8(%ebp),%eax
  4036cc:	5e                   	pop    %esi
  4036cd:	5f                   	pop    %edi
  4036ce:	5d                   	pop    %ebp
  4036cf:	c3                   	ret    

004036d0 <_strncat>:
  4036d0:	55                   	push   %ebp
  4036d1:	89 e5                	mov    %esp,%ebp
  4036d3:	57                   	push   %edi
  4036d4:	56                   	push   %esi
  4036d5:	8b 75 0c             	mov    0xc(%ebp),%esi
  4036d8:	8b 7d 08             	mov    0x8(%ebp),%edi
  4036db:	b8 00 00 00 00       	mov    $0x0,%eax
  4036e0:	b9 ff ff ff ff       	mov    $0xffffffff,%ecx
  4036e5:	fc                   	cld    
  4036e6:	f2 ae                	repnz scas %es:(%edi),%al
  4036e8:	4f                   	dec    %edi
  4036e9:	8b 4d 10             	mov    0x10(%ebp),%ecx
  4036ec:	49                   	dec    %ecx
  4036ed:	78 06                	js     4036f5 <_strncat+0x25>
  4036ef:	ac                   	lods   %ds:(%esi),%al
  4036f0:	aa                   	stos   %al,%es:(%edi)
  4036f1:	84 c0                	test   %al,%al
  4036f3:	75 f7                	jne    4036ec <_strncat+0x1c>
  4036f5:	31 c0                	xor    %eax,%eax
  4036f7:	aa                   	stos   %al,%es:(%edi)
  4036f8:	8b 45 08             	mov    0x8(%ebp),%eax
  4036fb:	5e                   	pop    %esi
  4036fc:	5f                   	pop    %edi
  4036fd:	5d                   	pop    %ebp
  4036fe:	c3                   	ret    

004036ff <_strcmp>:
  4036ff:	55                   	push   %ebp
  403700:	89 e5                	mov    %esp,%ebp
  403702:	57                   	push   %edi
  403703:	56                   	push   %esi
  403704:	8b 7d 08             	mov    0x8(%ebp),%edi
  403707:	8b 75 0c             	mov    0xc(%ebp),%esi
  40370a:	fc                   	cld    
  40370b:	ac                   	lods   %ds:(%esi),%al
  40370c:	ae                   	scas   %es:(%edi),%al
  40370d:	75 08                	jne    403717 <_strcmp+0x18>
  40370f:	84 c0                	test   %al,%al
  403711:	75 f8                	jne    40370b <_strcmp+0xc>
  403713:	31 c0                	xor    %eax,%eax
  403715:	eb 09                	jmp    403720 <_strcmp+0x21>
  403717:	b8 01 00 00 00       	mov    $0x1,%eax
  40371c:	7c 02                	jl     403720 <_strcmp+0x21>
  40371e:	f7 d8                	neg    %eax
  403720:	5e                   	pop    %esi
  403721:	5f                   	pop    %edi
  403722:	5d                   	pop    %ebp
  403723:	c3                   	ret    

00403724 <_strncmp>:
  403724:	55                   	push   %ebp
  403725:	89 e5                	mov    %esp,%ebp
  403727:	57                   	push   %edi
  403728:	56                   	push   %esi
  403729:	8b 7d 08             	mov    0x8(%ebp),%edi
  40372c:	8b 75 0c             	mov    0xc(%ebp),%esi
  40372f:	8b 4d 10             	mov    0x10(%ebp),%ecx
  403732:	fc                   	cld    
  403733:	49                   	dec    %ecx
  403734:	78 08                	js     40373e <_strncmp+0x1a>
  403736:	ac                   	lods   %ds:(%esi),%al
  403737:	ae                   	scas   %es:(%edi),%al
  403738:	75 08                	jne    403742 <_strncmp+0x1e>
  40373a:	84 c0                	test   %al,%al
  40373c:	75 f5                	jne    403733 <_strncmp+0xf>
  40373e:	31 c0                	xor    %eax,%eax
  403740:	eb 09                	jmp    40374b <_strncmp+0x27>
  403742:	b8 01 00 00 00       	mov    $0x1,%eax
  403747:	7c 02                	jl     40374b <_strncmp+0x27>
  403749:	f7 d8                	neg    %eax
  40374b:	5e                   	pop    %esi
  40374c:	5f                   	pop    %edi
  40374d:	5d                   	pop    %ebp
  40374e:	c3                   	ret    

0040374f <_strchr>:
  40374f:	55                   	push   %ebp
  403750:	89 e5                	mov    %esp,%ebp
  403752:	56                   	push   %esi
  403753:	8b 75 08             	mov    0x8(%ebp),%esi
  403756:	8b 45 0c             	mov    0xc(%ebp),%eax
  403759:	fc                   	cld    
  40375a:	88 c4                	mov    %al,%ah
  40375c:	ac                   	lods   %ds:(%esi),%al
  40375d:	38 e0                	cmp    %ah,%al
  40375f:	74 09                	je     40376a <_strchr+0x1b>
  403761:	84 c0                	test   %al,%al
  403763:	75 f7                	jne    40375c <_strchr+0xd>
  403765:	be 01 00 00 00       	mov    $0x1,%esi
  40376a:	89 f0                	mov    %esi,%eax
  40376c:	48                   	dec    %eax
  40376d:	5e                   	pop    %esi
  40376e:	5d                   	pop    %ebp
  40376f:	c3                   	ret    

00403770 <_strrchr>:
  403770:	55                   	push   %ebp
  403771:	89 e5                	mov    %esp,%ebp
  403773:	56                   	push   %esi
  403774:	ba 00 00 00 00       	mov    $0x0,%edx
  403779:	8b 75 08             	mov    0x8(%ebp),%esi
  40377c:	8b 45 0c             	mov    0xc(%ebp),%eax
  40377f:	fc                   	cld    
  403780:	88 c4                	mov    %al,%ah
  403782:	ac                   	lods   %ds:(%esi),%al
  403783:	38 e0                	cmp    %ah,%al
  403785:	75 03                	jne    40378a <_strrchr+0x1a>
  403787:	89 f2                	mov    %esi,%edx
  403789:	4a                   	dec    %edx
  40378a:	84 c0                	test   %al,%al
  40378c:	75 f4                	jne    403782 <_strrchr+0x12>
  40378e:	89 d0                	mov    %edx,%eax
  403790:	5e                   	pop    %esi
  403791:	5d                   	pop    %ebp
  403792:	c3                   	ret    

00403793 <_strspn>:
  403793:	55                   	push   %ebp
  403794:	89 e5                	mov    %esp,%ebp
  403796:	56                   	push   %esi
  403797:	b8 00 00 00 00       	mov    $0x0,%eax
  40379c:	b9 ff ff ff ff       	mov    $0xffffffff,%ecx
  4037a1:	8b 75 08             	mov    0x8(%ebp),%esi
  4037a4:	fc                   	cld    
  4037a5:	8b 7d 0c             	mov    0xc(%ebp),%edi
  4037a8:	f2 ae                	repnz scas %es:(%edi),%al
  4037aa:	f7 d1                	not    %ecx
  4037ac:	49                   	dec    %ecx
  4037ad:	89 ca                	mov    %ecx,%edx
  4037af:	ac                   	lods   %ds:(%esi),%al
  4037b0:	84 c0                	test   %al,%al
  4037b2:	74 09                	je     4037bd <_strspn+0x2a>
  4037b4:	8b 7d 0c             	mov    0xc(%ebp),%edi
  4037b7:	89 d1                	mov    %edx,%ecx
  4037b9:	f2 ae                	repnz scas %es:(%edi),%al
  4037bb:	74 f2                	je     4037af <_strspn+0x1c>
  4037bd:	4e                   	dec    %esi
  4037be:	89 f0                	mov    %esi,%eax
  4037c0:	2b 45 08             	sub    0x8(%ebp),%eax
  4037c3:	5e                   	pop    %esi
  4037c4:	5d                   	pop    %ebp
  4037c5:	c3                   	ret    

004037c6 <_strcspn>:
  4037c6:	55                   	push   %ebp
  4037c7:	89 e5                	mov    %esp,%ebp
  4037c9:	56                   	push   %esi
  4037ca:	b8 00 00 00 00       	mov    $0x0,%eax
  4037cf:	b9 ff ff ff ff       	mov    $0xffffffff,%ecx
  4037d4:	8b 75 08             	mov    0x8(%ebp),%esi
  4037d7:	fc                   	cld    
  4037d8:	8b 7d 0c             	mov    0xc(%ebp),%edi
  4037db:	f2 ae                	repnz scas %es:(%edi),%al
  4037dd:	f7 d1                	not    %ecx
  4037df:	49                   	dec    %ecx
  4037e0:	89 ca                	mov    %ecx,%edx
  4037e2:	ac                   	lods   %ds:(%esi),%al
  4037e3:	84 c0                	test   %al,%al
  4037e5:	74 09                	je     4037f0 <_strcspn+0x2a>
  4037e7:	8b 7d 0c             	mov    0xc(%ebp),%edi
  4037ea:	89 d1                	mov    %edx,%ecx
  4037ec:	f2 ae                	repnz scas %es:(%edi),%al
  4037ee:	75 f2                	jne    4037e2 <_strcspn+0x1c>
  4037f0:	4e                   	dec    %esi
  4037f1:	89 f0                	mov    %esi,%eax
  4037f3:	2b 45 08             	sub    0x8(%ebp),%eax
  4037f6:	5e                   	pop    %esi
  4037f7:	5d                   	pop    %ebp
  4037f8:	c3                   	ret    

004037f9 <_strpbrk>:
  4037f9:	55                   	push   %ebp
  4037fa:	89 e5                	mov    %esp,%ebp
  4037fc:	56                   	push   %esi
  4037fd:	b8 00 00 00 00       	mov    $0x0,%eax
  403802:	b9 ff ff ff ff       	mov    $0xffffffff,%ecx
  403807:	8b 75 08             	mov    0x8(%ebp),%esi
  40380a:	fc                   	cld    
  40380b:	8b 7d 0c             	mov    0xc(%ebp),%edi
  40380e:	f2 ae                	repnz scas %es:(%edi),%al
  403810:	f7 d1                	not    %ecx
  403812:	49                   	dec    %ecx
  403813:	89 ca                	mov    %ecx,%edx
  403815:	ac                   	lods   %ds:(%esi),%al
  403816:	84 c0                	test   %al,%al
  403818:	74 0c                	je     403826 <_strpbrk+0x2d>
  40381a:	8b 7d 0c             	mov    0xc(%ebp),%edi
  40381d:	89 d1                	mov    %edx,%ecx
  40381f:	f2 ae                	repnz scas %es:(%edi),%al
  403821:	75 f2                	jne    403815 <_strpbrk+0x1c>
  403823:	4e                   	dec    %esi
  403824:	eb 02                	jmp    403828 <_strpbrk+0x2f>
  403826:	31 f6                	xor    %esi,%esi
  403828:	89 f0                	mov    %esi,%eax
  40382a:	5e                   	pop    %esi
  40382b:	5d                   	pop    %ebp
  40382c:	c3                   	ret    

0040382d <_strstr>:
  40382d:	55                   	push   %ebp
  40382e:	89 e5                	mov    %esp,%ebp
  403830:	56                   	push   %esi
  403831:	b8 00 00 00 00       	mov    $0x0,%eax
  403836:	b9 ff ff ff ff       	mov    $0xffffffff,%ecx
  40383b:	8b 75 08             	mov    0x8(%ebp),%esi
  40383e:	fc                   	cld    
  40383f:	8b 7d 0c             	mov    0xc(%ebp),%edi
  403842:	f2 ae                	repnz scas %es:(%edi),%al
  403844:	f7 d1                	not    %ecx
  403846:	49                   	dec    %ecx
  403847:	89 ca                	mov    %ecx,%edx
  403849:	8b 7d 0c             	mov    0xc(%ebp),%edi
  40384c:	89 f0                	mov    %esi,%eax
  40384e:	89 d1                	mov    %edx,%ecx
  403850:	f3 a6                	repz cmpsb %es:(%edi),%ds:(%esi)
  403852:	74 0a                	je     40385e <_strstr+0x31>
  403854:	96                   	xchg   %eax,%esi
  403855:	46                   	inc    %esi
  403856:	80 78 ff 00          	cmpb   $0x0,0xffffffff(%eax)
  40385a:	75 ed                	jne    403849 <_strstr+0x1c>
  40385c:	31 c0                	xor    %eax,%eax
  40385e:	5e                   	pop    %esi
  40385f:	5d                   	pop    %ebp
  403860:	c3                   	ret    

00403861 <_strlen>:
  403861:	55                   	push   %ebp
  403862:	89 e5                	mov    %esp,%ebp
  403864:	83 ec 04             	sub    $0x4,%esp
  403867:	c7 45 fc 00 00 00 00 	movl   $0x0,0xfffffffc(%ebp)
  40386e:	8b 45 08             	mov    0x8(%ebp),%eax
  403871:	03 45 fc             	add    0xfffffffc(%ebp),%eax
  403874:	80 38 00             	cmpb   $0x0,(%eax)
  403877:	74 07                	je     403880 <_strlen+0x1f>
  403879:	8d 45 fc             	lea    0xfffffffc(%ebp),%eax
  40387c:	ff 00                	incl   (%eax)
  40387e:	eb ee                	jmp    40386e <_strlen+0xd>
  403880:	8b 45 fc             	mov    0xfffffffc(%ebp),%eax
  403883:	c9                   	leave  
  403884:	c3                   	ret    

00403885 <_strtok>:
  403885:	55                   	push   %ebp
  403886:	89 e5                	mov    %esp,%ebp
  403888:	56                   	push   %esi
  403889:	53                   	push   %ebx
  40388a:	8b 1d 00 82 40 00    	mov    0x408200,%ebx
  403890:	8b 75 08             	mov    0x8(%ebp),%esi
  403893:	85 f6                	test   %esi,%esi
  403895:	75 06                	jne    40389d <_strtok+0x18>
  403897:	85 db                	test   %ebx,%ebx
  403899:	74 57                	je     4038f2 <_strtok+0x6d>
  40389b:	89 de                	mov    %ebx,%esi
  40389d:	31 db                	xor    %ebx,%ebx
  40389f:	b9 ff ff ff ff       	mov    $0xffffffff,%ecx
  4038a4:	31 c0                	xor    %eax,%eax
  4038a6:	fc                   	cld    
  4038a7:	8b 7d 0c             	mov    0xc(%ebp),%edi
  4038aa:	f2 ae                	repnz scas %es:(%edi),%al
  4038ac:	f7 d1                	not    %ecx
  4038ae:	49                   	dec    %ecx
  4038af:	74 3b                	je     4038ec <_strtok+0x67>
  4038b1:	89 ca                	mov    %ecx,%edx
  4038b3:	ac                   	lods   %ds:(%esi),%al
  4038b4:	84 c0                	test   %al,%al
  4038b6:	74 34                	je     4038ec <_strtok+0x67>
  4038b8:	8b 7d 0c             	mov    0xc(%ebp),%edi
  4038bb:	89 d1                	mov    %edx,%ecx
  4038bd:	f2 ae                	repnz scas %es:(%edi),%al
  4038bf:	74 f2                	je     4038b3 <_strtok+0x2e>
  4038c1:	4e                   	dec    %esi
  4038c2:	80 3e 00             	cmpb   $0x0,(%esi)
  4038c5:	74 25                	je     4038ec <_strtok+0x67>
  4038c7:	89 f3                	mov    %esi,%ebx
  4038c9:	ac                   	lods   %ds:(%esi),%al
  4038ca:	84 c0                	test   %al,%al
  4038cc:	74 15                	je     4038e3 <_strtok+0x5e>
  4038ce:	8b 7d 0c             	mov    0xc(%ebp),%edi
  4038d1:	89 d1                	mov    %edx,%ecx
  4038d3:	f2 ae                	repnz scas %es:(%edi),%al
  4038d5:	75 f2                	jne    4038c9 <_strtok+0x44>
  4038d7:	4e                   	dec    %esi
  4038d8:	80 3e 00             	cmpb   $0x0,(%esi)
  4038db:	74 06                	je     4038e3 <_strtok+0x5e>
  4038dd:	c6 06 00             	movb   $0x0,(%esi)
  4038e0:	46                   	inc    %esi
  4038e1:	eb 02                	jmp    4038e5 <_strtok+0x60>
  4038e3:	31 f6                	xor    %esi,%esi
  4038e5:	80 3b 00             	cmpb   $0x0,(%ebx)
  4038e8:	75 02                	jne    4038ec <_strtok+0x67>
  4038ea:	31 db                	xor    %ebx,%ebx
  4038ec:	85 db                	test   %ebx,%ebx
  4038ee:	75 02                	jne    4038f2 <_strtok+0x6d>
  4038f0:	89 de                	mov    %ebx,%esi
  4038f2:	89 f0                	mov    %esi,%eax
  4038f4:	a3 00 82 40 00       	mov    %eax,0x408200
  4038f9:	89 d8                	mov    %ebx,%eax
  4038fb:	5b                   	pop    %ebx
  4038fc:	5e                   	pop    %esi
  4038fd:	5d                   	pop    %ebp
  4038fe:	c3                   	ret    

004038ff <_memcpy>:
  4038ff:	55                   	push   %ebp
  403900:	89 e5                	mov    %esp,%ebp
  403902:	57                   	push   %edi
  403903:	56                   	push   %esi
  403904:	8b 4d 10             	mov    0x10(%ebp),%ecx
  403907:	8b 75 0c             	mov    0xc(%ebp),%esi
  40390a:	8b 7d 08             	mov    0x8(%ebp),%edi
  40390d:	fc                   	cld    
  40390e:	f3 a4                	repz movsb %ds:(%esi),%es:(%edi)
  403910:	8b 45 08             	mov    0x8(%ebp),%eax
  403913:	5e                   	pop    %esi
  403914:	5f                   	pop    %edi
  403915:	5d                   	pop    %ebp
  403916:	c3                   	ret    

00403917 <_memcpyw>:
  403917:	55                   	push   %ebp
  403918:	89 e5                	mov    %esp,%ebp
  40391a:	57                   	push   %edi
  40391b:	56                   	push   %esi
  40391c:	8b 4d 10             	mov    0x10(%ebp),%ecx
  40391f:	8b 75 0c             	mov    0xc(%ebp),%esi
  403922:	8b 7d 08             	mov    0x8(%ebp),%edi
  403925:	fc                   	cld    
  403926:	f3 66 a5             	repz movsw %ds:(%esi),%es:(%edi)
  403929:	8b 45 08             	mov    0x8(%ebp),%eax
  40392c:	5e                   	pop    %esi
  40392d:	5f                   	pop    %edi
  40392e:	5d                   	pop    %ebp
  40392f:	c3                   	ret    

00403930 <_memmove>:
  403930:	55                   	push   %ebp
  403931:	89 e5                	mov    %esp,%ebp
  403933:	57                   	push   %edi
  403934:	56                   	push   %esi
  403935:	8b 45 08             	mov    0x8(%ebp),%eax
  403938:	3b 45 0c             	cmp    0xc(%ebp),%eax
  40393b:	73 0e                	jae    40394b <_memmove+0x1b>
  40393d:	8b 4d 10             	mov    0x10(%ebp),%ecx
  403940:	8b 75 0c             	mov    0xc(%ebp),%esi
  403943:	8b 7d 08             	mov    0x8(%ebp),%edi
  403946:	fc                   	cld    
  403947:	f3 a4                	repz movsb %ds:(%esi),%es:(%edi)
  403949:	eb 18                	jmp    403963 <_memmove+0x33>
  40394b:	8b 4d 10             	mov    0x10(%ebp),%ecx
  40394e:	8b 45 10             	mov    0x10(%ebp),%eax
  403951:	03 45 0c             	add    0xc(%ebp),%eax
  403954:	8d 70 ff             	lea    0xffffffff(%eax),%esi
  403957:	8b 45 10             	mov    0x10(%ebp),%eax
  40395a:	03 45 08             	add    0x8(%ebp),%eax
  40395d:	8d 78 ff             	lea    0xffffffff(%eax),%edi
  403960:	fd                   	std    
  403961:	f3 a4                	repz movsb %ds:(%esi),%es:(%edi)
  403963:	8b 45 08             	mov    0x8(%ebp),%eax
  403966:	5e                   	pop    %esi
  403967:	5f                   	pop    %edi
  403968:	5d                   	pop    %ebp
  403969:	c3                   	ret    

0040396a <_memcmp>:
  40396a:	55                   	push   %ebp
  40396b:	89 e5                	mov    %esp,%ebp
  40396d:	57                   	push   %edi
  40396e:	56                   	push   %esi
  40396f:	b8 00 00 00 00       	mov    $0x0,%eax
  403974:	8b 7d 08             	mov    0x8(%ebp),%edi
  403977:	8b 75 0c             	mov    0xc(%ebp),%esi
  40397a:	8b 4d 10             	mov    0x10(%ebp),%ecx
  40397d:	fc                   	cld    
  40397e:	f3 a6                	repz cmpsb %es:(%edi),%ds:(%esi)
  403980:	74 09                	je     40398b <_memcmp+0x21>
  403982:	b8 01 00 00 00       	mov    $0x1,%eax
  403987:	7c 02                	jl     40398b <_memcmp+0x21>
  403989:	f7 d8                	neg    %eax
  40398b:	5e                   	pop    %esi
  40398c:	5f                   	pop    %edi
  40398d:	5d                   	pop    %ebp
  40398e:	c3                   	ret    

0040398f <_memset>:
  40398f:	55                   	push   %ebp
  403990:	89 e5                	mov    %esp,%ebp
  403992:	57                   	push   %edi
  403993:	8b 45 0c             	mov    0xc(%ebp),%eax
  403996:	8b 7d 08             	mov    0x8(%ebp),%edi
  403999:	8b 4d 10             	mov    0x10(%ebp),%ecx
  40399c:	fc                   	cld    
  40399d:	f3 aa                	repz stos %al,%es:(%edi)
  40399f:	8b 45 08             	mov    0x8(%ebp),%eax
  4039a2:	5f                   	pop    %edi
  4039a3:	5d                   	pop    %ebp
  4039a4:	c3                   	ret    

004039a5 <_memsetw>:
  4039a5:	55                   	push   %ebp
  4039a6:	89 e5                	mov    %esp,%ebp
  4039a8:	57                   	push   %edi
  4039a9:	83 ec 04             	sub    $0x4,%esp
  4039ac:	8b 45 0c             	mov    0xc(%ebp),%eax
  4039af:	66 89 45 fa          	mov    %ax,0xfffffffa(%ebp)
  4039b3:	0f b7 45 fa          	movzwl 0xfffffffa(%ebp),%eax
  4039b7:	8b 7d 08             	mov    0x8(%ebp),%edi
  4039ba:	8b 4d 10             	mov    0x10(%ebp),%ecx
  4039bd:	fc                   	cld    
  4039be:	f3 66 ab             	repz stos %ax,%es:(%edi)
  4039c1:	8b 45 08             	mov    0x8(%ebp),%eax
  4039c4:	83 c4 04             	add    $0x4,%esp
  4039c7:	5f                   	pop    %edi
  4039c8:	5d                   	pop    %ebp
  4039c9:	c3                   	ret    

004039ca <_memsetd>:
  4039ca:	55                   	push   %ebp
  4039cb:	89 e5                	mov    %esp,%ebp
  4039cd:	57                   	push   %edi
  4039ce:	8b 45 0c             	mov    0xc(%ebp),%eax
  4039d1:	8b 7d 08             	mov    0x8(%ebp),%edi
  4039d4:	8b 4d 10             	mov    0x10(%ebp),%ecx
  4039d7:	fc                   	cld    
  4039d8:	f3 ab                	repz stos %eax,%es:(%edi)
  4039da:	8b 45 08             	mov    0x8(%ebp),%eax
  4039dd:	5f                   	pop    %edi
  4039de:	5d                   	pop    %ebp
  4039df:	c3                   	ret    

004039e0 <_strlwr>:
  4039e0:	55                   	push   %ebp
  4039e1:	89 e5                	mov    %esp,%ebp
  4039e3:	83 ec 04             	sub    $0x4,%esp
  4039e6:	c7 45 fc 00 00 00 00 	movl   $0x0,0xfffffffc(%ebp)
  4039ed:	8b 45 fc             	mov    0xfffffffc(%ebp),%eax
  4039f0:	89 c2                	mov    %eax,%edx
  4039f2:	03 55 08             	add    0x8(%ebp),%edx
  4039f5:	8d 45 fc             	lea    0xfffffffc(%ebp),%eax
  4039f8:	ff 00                	incl   (%eax)
  4039fa:	80 3a 00             	cmpb   $0x0,(%edx)
  4039fd:	74 2d                	je     403a2c <_strlwr+0x4c>
  4039ff:	8b 45 08             	mov    0x8(%ebp),%eax
  403a02:	03 45 fc             	add    0xfffffffc(%ebp),%eax
  403a05:	80 38 40             	cmpb   $0x40,(%eax)
  403a08:	7e e3                	jle    4039ed <_strlwr+0xd>
  403a0a:	8b 45 08             	mov    0x8(%ebp),%eax
  403a0d:	03 45 fc             	add    0xfffffffc(%ebp),%eax
  403a10:	80 38 5a             	cmpb   $0x5a,(%eax)
  403a13:	7f d8                	jg     4039ed <_strlwr+0xd>
  403a15:	8b 45 08             	mov    0x8(%ebp),%eax
  403a18:	8b 55 fc             	mov    0xfffffffc(%ebp),%edx
  403a1b:	01 c2                	add    %eax,%edx
  403a1d:	8b 45 08             	mov    0x8(%ebp),%eax
  403a20:	03 45 fc             	add    0xfffffffc(%ebp),%eax
  403a23:	0f b6 00             	movzbl (%eax),%eax
  403a26:	04 20                	add    $0x20,%al
  403a28:	88 02                	mov    %al,(%edx)
  403a2a:	eb c1                	jmp    4039ed <_strlwr+0xd>
  403a2c:	8b 45 08             	mov    0x8(%ebp),%eax
  403a2f:	c9                   	leave  
  403a30:	c3                   	ret    

00403a31 <_strnicmp>:
  403a31:	55                   	push   %ebp
  403a32:	89 e5                	mov    %esp,%ebp
  403a34:	83 ec 10             	sub    $0x10,%esp
  403a37:	c7 45 fc 00 00 00 00 	movl   $0x0,0xfffffffc(%ebp)
  403a3e:	8b 45 08             	mov    0x8(%ebp),%eax
  403a41:	03 45 fc             	add    0xfffffffc(%ebp),%eax
  403a44:	80 38 00             	cmpb   $0x0,(%eax)
  403a47:	0f 84 a7 00 00 00    	je     403af4 <_strnicmp+0xc3>
  403a4d:	8b 45 0c             	mov    0xc(%ebp),%eax
  403a50:	03 45 fc             	add    0xfffffffc(%ebp),%eax
  403a53:	80 38 00             	cmpb   $0x0,(%eax)
  403a56:	0f 84 98 00 00 00    	je     403af4 <_strnicmp+0xc3>
  403a5c:	8b 45 08             	mov    0x8(%ebp),%eax
  403a5f:	03 45 fc             	add    0xfffffffc(%ebp),%eax
  403a62:	0f b6 00             	movzbl (%eax),%eax
  403a65:	a2 f0 81 40 00       	mov    %al,0x4081f0
  403a6a:	0f be 05 f0 81 40 00 	movsbl 0x4081f0,%eax
  403a71:	0f b6 80 41 60 40 00 	movzbl 0x406041(%eax),%eax
  403a78:	83 e0 01             	and    $0x1,%eax
  403a7b:	85 c0                	test   %eax,%eax
  403a7d:	74 0f                	je     403a8e <_strnicmp+0x5d>
  403a7f:	0f be 05 f0 81 40 00 	movsbl 0x4081f0,%eax
  403a86:	83 c0 20             	add    $0x20,%eax
  403a89:	88 45 f7             	mov    %al,0xfffffff7(%ebp)
  403a8c:	eb 0a                	jmp    403a98 <_strnicmp+0x67>
  403a8e:	0f b6 05 f0 81 40 00 	movzbl 0x4081f0,%eax
  403a95:	88 45 f7             	mov    %al,0xfffffff7(%ebp)
  403a98:	8b 45 0c             	mov    0xc(%ebp),%eax
  403a9b:	03 45 fc             	add    0xfffffffc(%ebp),%eax
  403a9e:	0f b6 00             	movzbl (%eax),%eax
  403aa1:	a2 f0 81 40 00       	mov    %al,0x4081f0
  403aa6:	0f be 45 f7          	movsbl 0xfffffff7(%ebp),%eax
  403aaa:	89 45 f0             	mov    %eax,0xfffffff0(%ebp)
  403aad:	0f be 05 f0 81 40 00 	movsbl 0x4081f0,%eax
  403ab4:	0f b6 80 41 60 40 00 	movzbl 0x406041(%eax),%eax
  403abb:	83 e0 01             	and    $0x1,%eax
  403abe:	85 c0                	test   %eax,%eax
  403ac0:	74 11                	je     403ad3 <_strnicmp+0xa2>
  403ac2:	0f be 05 f0 81 40 00 	movsbl 0x4081f0,%eax
  403ac9:	83 c0 20             	add    $0x20,%eax
  403acc:	39 45 f0             	cmp    %eax,0xfffffff0(%ebp)
  403acf:	75 10                	jne    403ae1 <_strnicmp+0xb0>
  403ad1:	eb 17                	jmp    403aea <_strnicmp+0xb9>
  403ad3:	0f be 05 f0 81 40 00 	movsbl 0x4081f0,%eax
  403ada:	39 45 f0             	cmp    %eax,0xfffffff0(%ebp)
  403add:	75 02                	jne    403ae1 <_strnicmp+0xb0>
  403adf:	eb 09                	jmp    403aea <_strnicmp+0xb9>
  403ae1:	c7 45 f8 01 00 00 00 	movl   $0x1,0xfffffff8(%ebp)
  403ae8:	eb 11                	jmp    403afb <_strnicmp+0xca>
  403aea:	8d 45 fc             	lea    0xfffffffc(%ebp),%eax
  403aed:	ff 00                	incl   (%eax)
  403aef:	e9 4a ff ff ff       	jmp    403a3e <_strnicmp+0xd>
  403af4:	c7 45 f8 00 00 00 00 	movl   $0x0,0xfffffff8(%ebp)
  403afb:	8b 45 f8             	mov    0xfffffff8(%ebp),%eax
  403afe:	c9                   	leave  
  403aff:	c3                   	ret    

00403b00 <_stricmp>:
  403b00:	55                   	push   %ebp
  403b01:	89 e5                	mov    %esp,%ebp
  403b03:	83 ec 10             	sub    $0x10,%esp
  403b06:	c7 45 fc 00 00 00 00 	movl   $0x0,0xfffffffc(%ebp)
  403b0d:	8b 45 08             	mov    0x8(%ebp),%eax
  403b10:	03 45 fc             	add    0xfffffffc(%ebp),%eax
  403b13:	80 38 00             	cmpb   $0x0,(%eax)
  403b16:	0f 84 a7 00 00 00    	je     403bc3 <_stricmp+0xc3>
  403b1c:	8b 45 0c             	mov    0xc(%ebp),%eax
  403b1f:	03 45 fc             	add    0xfffffffc(%ebp),%eax
  403b22:	80 38 00             	cmpb   $0x0,(%eax)
  403b25:	0f 84 98 00 00 00    	je     403bc3 <_stricmp+0xc3>
  403b2b:	8b 45 08             	mov    0x8(%ebp),%eax
  403b2e:	03 45 fc             	add    0xfffffffc(%ebp),%eax
  403b31:	0f b6 00             	movzbl (%eax),%eax
  403b34:	a2 f0 81 40 00       	mov    %al,0x4081f0
  403b39:	0f be 05 f0 81 40 00 	movsbl 0x4081f0,%eax
  403b40:	0f b6 80 41 60 40 00 	movzbl 0x406041(%eax),%eax
  403b47:	83 e0 01             	and    $0x1,%eax
  403b4a:	85 c0                	test   %eax,%eax
  403b4c:	74 0f                	je     403b5d <_stricmp+0x5d>
  403b4e:	0f be 05 f0 81 40 00 	movsbl 0x4081f0,%eax
  403b55:	83 c0 20             	add    $0x20,%eax
  403b58:	88 45 f7             	mov    %al,0xfffffff7(%ebp)
  403b5b:	eb 0a                	jmp    403b67 <_stricmp+0x67>
  403b5d:	0f b6 05 f0 81 40 00 	movzbl 0x4081f0,%eax
  403b64:	88 45 f7             	mov    %al,0xfffffff7(%ebp)
  403b67:	8b 45 0c             	mov    0xc(%ebp),%eax
  403b6a:	03 45 fc             	add    0xfffffffc(%ebp),%eax
  403b6d:	0f b6 00             	movzbl (%eax),%eax
  403b70:	a2 f0 81 40 00       	mov    %al,0x4081f0
  403b75:	0f be 45 f7          	movsbl 0xfffffff7(%ebp),%eax
  403b79:	89 45 f0             	mov    %eax,0xfffffff0(%ebp)
  403b7c:	0f be 05 f0 81 40 00 	movsbl 0x4081f0,%eax
  403b83:	0f b6 80 41 60 40 00 	movzbl 0x406041(%eax),%eax
  403b8a:	83 e0 01             	and    $0x1,%eax
  403b8d:	85 c0                	test   %eax,%eax
  403b8f:	74 11                	je     403ba2 <_stricmp+0xa2>
  403b91:	0f be 05 f0 81 40 00 	movsbl 0x4081f0,%eax
  403b98:	83 c0 20             	add    $0x20,%eax
  403b9b:	39 45 f0             	cmp    %eax,0xfffffff0(%ebp)
  403b9e:	75 10                	jne    403bb0 <_stricmp+0xb0>
  403ba0:	eb 17                	jmp    403bb9 <_stricmp+0xb9>
  403ba2:	0f be 05 f0 81 40 00 	movsbl 0x4081f0,%eax
  403ba9:	39 45 f0             	cmp    %eax,0xfffffff0(%ebp)
  403bac:	75 02                	jne    403bb0 <_stricmp+0xb0>
  403bae:	eb 09                	jmp    403bb9 <_stricmp+0xb9>
  403bb0:	c7 45 f8 01 00 00 00 	movl   $0x1,0xfffffff8(%ebp)
  403bb7:	eb 30                	jmp    403be9 <_stricmp+0xe9>
  403bb9:	8d 45 fc             	lea    0xfffffffc(%ebp),%eax
  403bbc:	ff 00                	incl   (%eax)
  403bbe:	e9 4a ff ff ff       	jmp    403b0d <_stricmp+0xd>
  403bc3:	8b 45 08             	mov    0x8(%ebp),%eax
  403bc6:	03 45 fc             	add    0xfffffffc(%ebp),%eax
  403bc9:	80 38 00             	cmpb   $0x0,(%eax)
  403bcc:	75 14                	jne    403be2 <_stricmp+0xe2>
  403bce:	8b 45 0c             	mov    0xc(%ebp),%eax
  403bd1:	03 45 fc             	add    0xfffffffc(%ebp),%eax
  403bd4:	80 38 00             	cmpb   $0x0,(%eax)
  403bd7:	75 09                	jne    403be2 <_stricmp+0xe2>
  403bd9:	c7 45 f8 00 00 00 00 	movl   $0x0,0xfffffff8(%ebp)
  403be0:	eb 07                	jmp    403be9 <_stricmp+0xe9>
  403be2:	c7 45 f8 01 00 00 00 	movl   $0x1,0xfffffff8(%ebp)
  403be9:	8b 45 f8             	mov    0xfffffff8(%ebp),%eax
  403bec:	c9                   	leave  
  403bed:	c3                   	ret    
  403bee:	90                   	nop    
  403bef:	90                   	nop    

00403bf0 <_time>:
  403bf0:	55                   	push   %ebp
  403bf1:	89 e5                	mov    %esp,%ebp
  403bf3:	83 ec 08             	sub    $0x8,%esp
  403bf6:	83 7d 08 00          	cmpl   $0x0,0x8(%ebp)
  403bfa:	74 0c                	je     403c08 <_time+0x18>
  403bfc:	e8 9f ea ff ff       	call   4026a0 <__GetTickCount>
  403c01:	89 c2                	mov    %eax,%edx
  403c03:	8b 45 08             	mov    0x8(%ebp),%eax
  403c06:	89 10                	mov    %edx,(%eax)
  403c08:	8b 45 08             	mov    0x8(%ebp),%eax
  403c0b:	8b 00                	mov    (%eax),%eax
  403c0d:	c9                   	leave  
  403c0e:	c3                   	ret    

00403c0f <_mktime>:
  403c0f:	55                   	push   %ebp
  403c10:	89 e5                	mov    %esp,%ebp
  403c12:	53                   	push   %ebx
  403c13:	83 ec 14             	sub    $0x14,%esp
  403c16:	8b 45 08             	mov    0x8(%ebp),%eax
  403c19:	8b 40 10             	mov    0x10(%eax),%eax
  403c1c:	66 89 45 fa          	mov    %ax,0xfffffffa(%ebp)
  403c20:	8b 45 08             	mov    0x8(%ebp),%eax
  403c23:	83 78 14 45          	cmpl   $0x45,0x14(%eax)
  403c27:	7f 2c                	jg     403c55 <_mktime+0x46>
  403c29:	8b 45 08             	mov    0x8(%ebp),%eax
  403c2c:	8b 58 14             	mov    0x14(%eax),%ebx
  403c2f:	0f bf 4d fa          	movswl 0xfffffffa(%ebp),%ecx
  403c33:	b8 ab aa aa 2a       	mov    $0x2aaaaaab,%eax
  403c38:	f7 e9                	imul   %ecx
  403c3a:	d1 fa                	sar    %edx
  403c3c:	89 c8                	mov    %ecx,%eax
  403c3e:	c1 f8 1f             	sar    $0x1f,%eax
  403c41:	29 c2                	sub    %eax,%edx
  403c43:	89 d0                	mov    %edx,%eax
  403c45:	89 da                	mov    %ebx,%edx
  403c47:	8d 04 02             	lea    (%edx,%eax,1),%eax
  403c4a:	05 d0 07 00 00       	add    $0x7d0,%eax
  403c4f:	66 89 45 f8          	mov    %ax,0xfffffff8(%ebp)
  403c53:	eb 2a                	jmp    403c7f <_mktime+0x70>
  403c55:	8b 45 08             	mov    0x8(%ebp),%eax
  403c58:	8b 58 14             	mov    0x14(%eax),%ebx
  403c5b:	0f bf 4d fa          	movswl 0xfffffffa(%ebp),%ecx
  403c5f:	b8 ab aa aa 2a       	mov    $0x2aaaaaab,%eax
  403c64:	f7 e9                	imul   %ecx
  403c66:	d1 fa                	sar    %edx
  403c68:	89 c8                	mov    %ecx,%eax
  403c6a:	c1 f8 1f             	sar    $0x1f,%eax
  403c6d:	29 c2                	sub    %eax,%edx
  403c6f:	89 d0                	mov    %edx,%eax
  403c71:	89 da                	mov    %ebx,%edx
  403c73:	8d 04 02             	lea    (%edx,%eax,1),%eax
  403c76:	05 6c 07 00 00       	add    $0x76c,%eax
  403c7b:	66 89 45 f8          	mov    %ax,0xfffffff8(%ebp)
  403c7f:	0f bf 4d fa          	movswl 0xfffffffa(%ebp),%ecx
  403c83:	b8 ab aa aa 2a       	mov    $0x2aaaaaab,%eax
  403c88:	f7 e9                	imul   %ecx
  403c8a:	d1 fa                	sar    %edx
  403c8c:	89 c8                	mov    %ecx,%eax
  403c8e:	c1 f8 1f             	sar    $0x1f,%eax
  403c91:	29 c2                	sub    %eax,%edx
  403c93:	89 d0                	mov    %edx,%eax
  403c95:	01 c0                	add    %eax,%eax
  403c97:	01 d0                	add    %edx,%eax
  403c99:	c1 e0 02             	shl    $0x2,%eax
  403c9c:	29 c1                	sub    %eax,%ecx
  403c9e:	89 c8                	mov    %ecx,%eax
  403ca0:	66 89 45 fa          	mov    %ax,0xfffffffa(%ebp)
  403ca4:	66 83 7d fa 00       	cmpw   $0x0,0xfffffffa(%ebp)
  403ca9:	79 13                	jns    403cbe <_mktime+0xaf>
  403cab:	8b 45 f8             	mov    0xfffffff8(%ebp),%eax
  403cae:	48                   	dec    %eax
  403caf:	66 89 45 f8          	mov    %ax,0xfffffff8(%ebp)
  403cb3:	0f b7 45 fa          	movzwl 0xfffffffa(%ebp),%eax
  403cb7:	83 c0 0c             	add    $0xc,%eax
  403cba:	66 89 45 fa          	mov    %ax,0xfffffffa(%ebp)
  403cbe:	0f bf 45 f8          	movswl 0xfffffff8(%ebp),%eax
  403cc2:	89 45 f0             	mov    %eax,0xfffffff0(%ebp)
  403cc5:	c1 65 f0 03          	shll   $0x3,0xfffffff0(%ebp)
  403cc9:	01 45 f0             	add    %eax,0xfffffff0(%ebp)
  403ccc:	c1 65 f0 03          	shll   $0x3,0xfffffff0(%ebp)
  403cd0:	01 45 f0             	add    %eax,0xfffffff0(%ebp)
  403cd3:	8b 45 f0             	mov    0xfffffff0(%ebp),%eax
  403cd6:	c1 e0 02             	shl    $0x2,%eax
  403cd9:	01 45 f0             	add    %eax,0xfffffff0(%ebp)
  403cdc:	0f bf 45 f8          	movswl 0xfffffff8(%ebp),%eax
  403ce0:	2d b1 07 00 00       	sub    $0x7b1,%eax
  403ce5:	89 45 ec             	mov    %eax,0xffffffec(%ebp)
  403ce8:	83 7d ec 00          	cmpl   $0x0,0xffffffec(%ebp)
  403cec:	79 04                	jns    403cf2 <_mktime+0xe3>
  403cee:	83 45 ec 03          	addl   $0x3,0xffffffec(%ebp)
  403cf2:	8b 45 ec             	mov    0xffffffec(%ebp),%eax
  403cf5:	c1 f8 02             	sar    $0x2,%eax
  403cf8:	8b 55 f0             	mov    0xfffffff0(%ebp),%edx
  403cfb:	01 c2                	add    %eax,%edx
  403cfd:	0f bf 45 fa          	movswl 0xfffffffa(%ebp),%eax
  403d01:	0f b7 84 00 90 72 40 	movzwl 0x407290(%eax,%eax,1),%eax
  403d08:	00 
  403d09:	8d 04 02             	lea    (%edx,%eax,1),%eax
  403d0c:	2d ca f8 0a 00       	sub    $0xaf8ca,%eax
  403d11:	89 45 f4             	mov    %eax,0xfffffff4(%ebp)
  403d14:	0f bf 55 f8          	movswl 0xfffffff8(%ebp),%edx
  403d18:	89 d0                	mov    %edx,%eax
  403d1a:	c1 e0 03             	shl    $0x3,%eax
  403d1d:	01 d0                	add    %edx,%eax
  403d1f:	c1 e0 03             	shl    $0x3,%eax
  403d22:	01 d0                	add    %edx,%eax
  403d24:	8d 14 85 00 00 00 00 	lea    0x0(,%eax,4),%edx
  403d2b:	01 d0                	add    %edx,%eax
  403d2d:	0f bf 55 fa          	movswl 0xfffffffa(%ebp),%edx
  403d31:	0f b7 94 12 90 72 40 	movzwl 0x407290(%edx,%edx,1),%edx
  403d38:	00 
  403d39:	01 d0                	add    %edx,%eax
  403d3b:	2d ca f8 0a 00       	sub    $0xaf8ca,%eax
  403d40:	89 45 f4             	mov    %eax,0xfffffff4(%ebp)
  403d43:	66 83 7d fa 01       	cmpw   $0x1,0xfffffffa(%ebp)
  403d48:	7f 08                	jg     403d52 <_mktime+0x143>
  403d4a:	8b 45 f8             	mov    0xfffffff8(%ebp),%eax
  403d4d:	48                   	dec    %eax
  403d4e:	66 89 45 f8          	mov    %ax,0xfffffff8(%ebp)
  403d52:	0f bf 45 f8          	movswl 0xfffffff8(%ebp),%eax
  403d56:	2d b0 07 00 00       	sub    $0x7b0,%eax
  403d5b:	89 45 e8             	mov    %eax,0xffffffe8(%ebp)
  403d5e:	83 7d e8 00          	cmpl   $0x0,0xffffffe8(%ebp)
  403d62:	79 04                	jns    403d68 <_mktime+0x159>
  403d64:	83 45 e8 03          	addl   $0x3,0xffffffe8(%ebp)
  403d68:	8b 55 e8             	mov    0xffffffe8(%ebp),%edx
  403d6b:	c1 fa 02             	sar    $0x2,%edx
  403d6e:	8d 45 f4             	lea    0xfffffff4(%ebp),%eax
  403d71:	01 10                	add    %edx,(%eax)
  403d73:	0f bf 45 f8          	movswl 0xfffffff8(%ebp),%eax
  403d77:	8d 88 94 f8 ff ff    	lea    0xfffff894(%eax),%ecx
  403d7d:	b8 1f 85 eb 51       	mov    $0x51eb851f,%eax
  403d82:	f7 e9                	imul   %ecx
  403d84:	c1 fa 05             	sar    $0x5,%edx
  403d87:	89 c8                	mov    %ecx,%eax
  403d89:	c1 f8 1f             	sar    $0x1f,%eax
  403d8c:	29 c2                	sub    %eax,%edx
  403d8e:	8d 45 f4             	lea    0xfffffff4(%ebp),%eax
  403d91:	29 10                	sub    %edx,(%eax)
  403d93:	0f bf 45 f8          	movswl 0xfffffff8(%ebp),%eax
  403d97:	8d 88 c0 f9 ff ff    	lea    0xfffff9c0(%eax),%ecx
  403d9d:	b8 1f 85 eb 51       	mov    $0x51eb851f,%eax
  403da2:	f7 e9                	imul   %ecx
  403da4:	c1 fa 07             	sar    $0x7,%edx
  403da7:	89 c8                	mov    %ecx,%eax
  403da9:	c1 f8 1f             	sar    $0x1f,%eax
  403dac:	29 c2                	sub    %eax,%edx
  403dae:	8d 45 f4             	lea    0xfffffff4(%ebp),%eax
  403db1:	01 10                	add    %edx,(%eax)
  403db3:	8b 45 08             	mov    0x8(%ebp),%eax
  403db6:	8b 50 0c             	mov    0xc(%eax),%edx
  403db9:	8d 45 f4             	lea    0xfffffff4(%ebp),%eax
  403dbc:	01 10                	add    %edx,(%eax)
  403dbe:	8d 45 f4             	lea    0xfffffff4(%ebp),%eax
  403dc1:	ff 08                	decl   (%eax)
  403dc3:	8b 55 f4             	mov    0xfffffff4(%ebp),%edx
  403dc6:	89 d0                	mov    %edx,%eax
  403dc8:	01 c0                	add    %eax,%eax
  403dca:	01 d0                	add    %edx,%eax
  403dcc:	c1 e0 03             	shl    $0x3,%eax
  403dcf:	89 45 f4             	mov    %eax,0xfffffff4(%ebp)
  403dd2:	8b 45 08             	mov    0x8(%ebp),%eax
  403dd5:	8b 50 08             	mov    0x8(%eax),%edx
  403dd8:	8d 45 f4             	lea    0xfffffff4(%ebp),%eax
  403ddb:	01 10                	add    %edx,(%eax)
  403ddd:	8b 55 f4             	mov    0xfffffff4(%ebp),%edx
  403de0:	89 d0                	mov    %edx,%eax
  403de2:	c1 e0 04             	shl    $0x4,%eax
  403de5:	29 d0                	sub    %edx,%eax
  403de7:	c1 e0 02             	shl    $0x2,%eax
  403dea:	89 45 f4             	mov    %eax,0xfffffff4(%ebp)
  403ded:	8b 45 08             	mov    0x8(%ebp),%eax
  403df0:	8b 50 04             	mov    0x4(%eax),%edx
  403df3:	8d 45 f4             	lea    0xfffffff4(%ebp),%eax
  403df6:	01 10                	add    %edx,(%eax)
  403df8:	8b 55 f4             	mov    0xfffffff4(%ebp),%edx
  403dfb:	89 d0                	mov    %edx,%eax
  403dfd:	c1 e0 04             	shl    $0x4,%eax
  403e00:	29 d0                	sub    %edx,%eax
  403e02:	c1 e0 02             	shl    $0x2,%eax
  403e05:	89 45 f4             	mov    %eax,0xfffffff4(%ebp)
  403e08:	8b 45 08             	mov    0x8(%ebp),%eax
  403e0b:	8b 10                	mov    (%eax),%edx
  403e0d:	8d 45 f4             	lea    0xfffffff4(%ebp),%eax
  403e10:	01 10                	add    %edx,(%eax)
  403e12:	8b 45 f4             	mov    0xfffffff4(%ebp),%eax
  403e15:	83 c4 14             	add    $0x14,%esp
  403e18:	5b                   	pop    %ebx
  403e19:	5d                   	pop    %ebp
  403e1a:	c3                   	ret    

00403e1b <_gettime>:
  403e1b:	55                   	push   %ebp
  403e1c:	89 e5                	mov    %esp,%ebp
  403e1e:	83 ec 18             	sub    $0x18,%esp
  403e21:	8b 45 0c             	mov    0xc(%ebp),%eax
  403e24:	89 44 24 08          	mov    %eax,0x8(%esp)
  403e28:	c7 44 24 04 00 00 00 	movl   $0x0,0x4(%esp)
  403e2f:	00 
  403e30:	8b 45 08             	mov    0x8(%ebp),%eax
  403e33:	89 04 24             	mov    %eax,(%esp)
  403e36:	e8 02 00 00 00       	call   403e3d <___offtime>
  403e3b:	c9                   	leave  
  403e3c:	c3                   	ret    

00403e3d <___offtime>:
  403e3d:	55                   	push   %ebp
  403e3e:	89 e5                	mov    %esp,%ebp
  403e40:	53                   	push   %ebx
  403e41:	83 ec 70             	sub    $0x70,%esp
  403e44:	8b 45 08             	mov    0x8(%ebp),%eax
  403e47:	8b 10                	mov    (%eax),%edx
  403e49:	b8 07 45 2e c2       	mov    $0xc22e4507,%eax
  403e4e:	f7 e2                	mul    %edx
  403e50:	89 d0                	mov    %edx,%eax
  403e52:	c1 e8 10             	shr    $0x10,%eax
  403e55:	89 45 f8             	mov    %eax,0xfffffff8(%ebp)
  403e58:	8b 45 08             	mov    0x8(%ebp),%eax
  403e5b:	8b 08                	mov    (%eax),%ecx
  403e5d:	b8 07 45 2e c2       	mov    $0xc22e4507,%eax
  403e62:	f7 e1                	mul    %ecx
  403e64:	89 d0                	mov    %edx,%eax
  403e66:	c1 e8 10             	shr    $0x10,%eax
  403e69:	69 c0 80 51 01 00    	imul   $0x15180,%eax,%eax
  403e6f:	29 c1                	sub    %eax,%ecx
  403e71:	89 c8                	mov    %ecx,%eax
  403e73:	89 45 f4             	mov    %eax,0xfffffff4(%ebp)
  403e76:	8b 55 0c             	mov    0xc(%ebp),%edx
  403e79:	8d 45 f4             	lea    0xfffffff4(%ebp),%eax
  403e7c:	01 10                	add    %edx,(%eax)
  403e7e:	83 7d f4 00          	cmpl   $0x0,0xfffffff4(%ebp)
  403e82:	79 10                	jns    403e94 <___offtime+0x57>
  403e84:	8d 45 f4             	lea    0xfffffff4(%ebp),%eax
  403e87:	81 00 80 51 01 00    	addl   $0x15180,(%eax)
  403e8d:	8d 45 f8             	lea    0xfffffff8(%ebp),%eax
  403e90:	ff 08                	decl   (%eax)
  403e92:	eb ea                	jmp    403e7e <___offtime+0x41>
  403e94:	81 7d f4 7f 51 01 00 	cmpl   $0x1517f,0xfffffff4(%ebp)
  403e9b:	7e 10                	jle    403ead <___offtime+0x70>
  403e9d:	8d 45 f4             	lea    0xfffffff4(%ebp),%eax
  403ea0:	81 28 80 51 01 00    	subl   $0x15180,(%eax)
  403ea6:	8d 45 f8             	lea    0xfffffff8(%ebp),%eax
  403ea9:	ff 00                	incl   (%eax)
  403eab:	eb e7                	jmp    403e94 <___offtime+0x57>
  403ead:	8b 5d 10             	mov    0x10(%ebp),%ebx
  403eb0:	8b 4d f4             	mov    0xfffffff4(%ebp),%ecx
  403eb3:	b8 c5 b3 a2 91       	mov    $0x91a2b3c5,%eax
  403eb8:	f7 e9                	imul   %ecx
  403eba:	8d 04 0a             	lea    (%edx,%ecx,1),%eax
  403ebd:	89 c2                	mov    %eax,%edx
  403ebf:	c1 fa 0b             	sar    $0xb,%edx
  403ec2:	89 c8                	mov    %ecx,%eax
  403ec4:	c1 f8 1f             	sar    $0x1f,%eax
  403ec7:	29 c2                	sub    %eax,%edx
  403ec9:	89 d0                	mov    %edx,%eax
  403ecb:	89 43 08             	mov    %eax,0x8(%ebx)
  403ece:	8b 4d f4             	mov    0xfffffff4(%ebp),%ecx
  403ed1:	b8 c5 b3 a2 91       	mov    $0x91a2b3c5,%eax
  403ed6:	f7 e9                	imul   %ecx
  403ed8:	8d 04 0a             	lea    (%edx,%ecx,1),%eax
  403edb:	89 c2                	mov    %eax,%edx
  403edd:	c1 fa 0b             	sar    $0xb,%edx
  403ee0:	89 c8                	mov    %ecx,%eax
  403ee2:	c1 f8 1f             	sar    $0x1f,%eax
  403ee5:	29 c2                	sub    %eax,%edx
  403ee7:	89 d0                	mov    %edx,%eax
  403ee9:	69 c0 10 0e 00 00    	imul   $0xe10,%eax,%eax
  403eef:	29 c1                	sub    %eax,%ecx
  403ef1:	89 c8                	mov    %ecx,%eax
  403ef3:	89 45 f4             	mov    %eax,0xfffffff4(%ebp)
  403ef6:	8b 5d 10             	mov    0x10(%ebp),%ebx
  403ef9:	8b 4d f4             	mov    0xfffffff4(%ebp),%ecx
  403efc:	b8 89 88 88 88       	mov    $0x88888889,%eax
  403f01:	f7 e9                	imul   %ecx
  403f03:	8d 04 0a             	lea    (%edx,%ecx,1),%eax
  403f06:	89 c2                	mov    %eax,%edx
  403f08:	c1 fa 05             	sar    $0x5,%edx
  403f0b:	89 c8                	mov    %ecx,%eax
  403f0d:	c1 f8 1f             	sar    $0x1f,%eax
  403f10:	29 c2                	sub    %eax,%edx
  403f12:	89 d0                	mov    %edx,%eax
  403f14:	89 43 04             	mov    %eax,0x4(%ebx)
  403f17:	8b 5d 10             	mov    0x10(%ebp),%ebx
  403f1a:	8b 4d f4             	mov    0xfffffff4(%ebp),%ecx
  403f1d:	b8 89 88 88 88       	mov    $0x88888889,%eax
  403f22:	f7 e9                	imul   %ecx
  403f24:	8d 04 0a             	lea    (%edx,%ecx,1),%eax
  403f27:	89 c2                	mov    %eax,%edx
  403f29:	c1 fa 05             	sar    $0x5,%edx
  403f2c:	89 c8                	mov    %ecx,%eax
  403f2e:	c1 f8 1f             	sar    $0x1f,%eax
  403f31:	29 c2                	sub    %eax,%edx
  403f33:	89 d0                	mov    %edx,%eax
  403f35:	c1 e0 04             	shl    $0x4,%eax
  403f38:	29 d0                	sub    %edx,%eax
  403f3a:	c1 e0 02             	shl    $0x2,%eax
  403f3d:	29 c1                	sub    %eax,%ecx
  403f3f:	89 c8                	mov    %ecx,%eax
  403f41:	89 03                	mov    %eax,(%ebx)
  403f43:	8b 5d 10             	mov    0x10(%ebp),%ebx
  403f46:	8b 4d f8             	mov    0xfffffff8(%ebp),%ecx
  403f49:	83 c1 04             	add    $0x4,%ecx
  403f4c:	b8 93 24 49 92       	mov    $0x92492493,%eax
  403f51:	f7 e9                	imul   %ecx
  403f53:	8d 04 11             	lea    (%ecx,%edx,1),%eax
  403f56:	89 c2                	mov    %eax,%edx
  403f58:	c1 fa 02             	sar    $0x2,%edx
  403f5b:	89 c8                	mov    %ecx,%eax
  403f5d:	c1 f8 1f             	sar    $0x1f,%eax
  403f60:	29 c2                	sub    %eax,%edx
  403f62:	89 d0                	mov    %edx,%eax
  403f64:	89 43 18             	mov    %eax,0x18(%ebx)
  403f67:	8b 53 18             	mov    0x18(%ebx),%edx
  403f6a:	89 d0                	mov    %edx,%eax
  403f6c:	c1 e0 03             	shl    $0x3,%eax
  403f6f:	29 d0                	sub    %edx,%eax
  403f71:	29 c1                	sub    %eax,%ecx
  403f73:	89 c8                	mov    %ecx,%eax
  403f75:	89 43 18             	mov    %eax,0x18(%ebx)
  403f78:	8b 45 10             	mov    0x10(%ebp),%eax
  403f7b:	83 78 18 00          	cmpl   $0x0,0x18(%eax)
  403f7f:	79 0f                	jns    403f90 <___offtime+0x153>
  403f81:	8b 45 10             	mov    0x10(%ebp),%eax
  403f84:	8b 55 10             	mov    0x10(%ebp),%edx
  403f87:	8b 52 18             	mov    0x18(%edx),%edx
  403f8a:	83 c2 07             	add    $0x7,%edx
  403f8d:	89 50 18             	mov    %edx,0x18(%eax)
  403f90:	c7 45 f0 b2 07 00 00 	movl   $0x7b2,0xfffffff0(%ebp)
  403f97:	83 7d f8 00          	cmpl   $0x0,0xfffffff8(%ebp)
  403f9b:	0f 88 84 00 00 00    	js     404025 <___offtime+0x1e8>
  403fa1:	8b 45 f0             	mov    0xfffffff0(%ebp),%eax
  403fa4:	83 e0 03             	and    $0x3,%eax
  403fa7:	85 c0                	test   %eax,%eax
  403fa9:	75 6c                	jne    404017 <___offtime+0x1da>
  403fab:	8b 4d f0             	mov    0xfffffff0(%ebp),%ecx
  403fae:	b8 1f 85 eb 51       	mov    $0x51eb851f,%eax
  403fb3:	f7 e9                	imul   %ecx
  403fb5:	c1 fa 05             	sar    $0x5,%edx
  403fb8:	89 c8                	mov    %ecx,%eax
  403fba:	c1 f8 1f             	sar    $0x1f,%eax
  403fbd:	29 c2                	sub    %eax,%edx
  403fbf:	89 d0                	mov    %edx,%eax
  403fc1:	c1 e0 02             	shl    $0x2,%eax
  403fc4:	01 d0                	add    %edx,%eax
  403fc6:	8d 14 85 00 00 00 00 	lea    0x0(,%eax,4),%edx
  403fcd:	01 d0                	add    %edx,%eax
  403fcf:	c1 e0 02             	shl    $0x2,%eax
  403fd2:	29 c1                	sub    %eax,%ecx
  403fd4:	89 c8                	mov    %ecx,%eax
  403fd6:	85 c0                	test   %eax,%eax
  403fd8:	75 2f                	jne    404009 <___offtime+0x1cc>
  403fda:	8b 4d f0             	mov    0xfffffff0(%ebp),%ecx
  403fdd:	b8 1f 85 eb 51       	mov    $0x51eb851f,%eax
  403fe2:	f7 e9                	imul   %ecx
  403fe4:	c1 fa 07             	sar    $0x7,%edx
  403fe7:	89 c8                	mov    %ecx,%eax
  403fe9:	c1 f8 1f             	sar    $0x1f,%eax
  403fec:	29 c2                	sub    %eax,%edx
  403fee:	89 d0                	mov    %edx,%eax
  403ff0:	c1 e0 02             	shl    $0x2,%eax
  403ff3:	01 d0                	add    %edx,%eax
  403ff5:	8d 14 85 00 00 00 00 	lea    0x0(,%eax,4),%edx
  403ffc:	01 d0                	add    %edx,%eax
  403ffe:	c1 e0 04             	shl    $0x4,%eax
  404001:	29 c1                	sub    %eax,%ecx
  404003:	89 c8                	mov    %ecx,%eax
  404005:	85 c0                	test   %eax,%eax
  404007:	75 0e                	jne    404017 <___offtime+0x1da>
  404009:	81 7d f8 6d 01 00 00 	cmpl   $0x16d,0xfffffff8(%ebp)
  404010:	7f 13                	jg     404025 <___offtime+0x1e8>
  404012:	e9 1e 03 00 00       	jmp    404335 <___offtime+0x4f8>
  404017:	81 7d f8 6c 01 00 00 	cmpl   $0x16c,0xfffffff8(%ebp)
  40401e:	7f 05                	jg     404025 <___offtime+0x1e8>
  404020:	e9 10 03 00 00       	jmp    404335 <___offtime+0x4f8>
  404025:	8b 4d f8             	mov    0xfffffff8(%ebp),%ecx
  404028:	b8 b1 f9 8c b3       	mov    $0xb38cf9b1,%eax
  40402d:	f7 e9                	imul   %ecx
  40402f:	8d 04 0a             	lea    (%edx,%ecx,1),%eax
  404032:	89 c2                	mov    %eax,%edx
  404034:	c1 fa 08             	sar    $0x8,%edx
  404037:	89 c8                	mov    %ecx,%eax
  404039:	c1 f8 1f             	sar    $0x1f,%eax
  40403c:	89 d3                	mov    %edx,%ebx
  40403e:	29 c3                	sub    %eax,%ebx
  404040:	03 5d f0             	add    0xfffffff0(%ebp),%ebx
  404043:	8b 4d f8             	mov    0xfffffff8(%ebp),%ecx
  404046:	b8 b1 f9 8c b3       	mov    $0xb38cf9b1,%eax
  40404b:	f7 e9                	imul   %ecx
  40404d:	8d 04 0a             	lea    (%edx,%ecx,1),%eax
  404050:	89 c2                	mov    %eax,%edx
  404052:	c1 fa 08             	sar    $0x8,%edx
  404055:	89 c8                	mov    %ecx,%eax
  404057:	c1 f8 1f             	sar    $0x1f,%eax
  40405a:	29 c2                	sub    %eax,%edx
  40405c:	89 55 e0             	mov    %edx,0xffffffe0(%ebp)
  40405f:	8b 45 e0             	mov    0xffffffe0(%ebp),%eax
  404062:	c1 e0 03             	shl    $0x3,%eax
  404065:	03 45 e0             	add    0xffffffe0(%ebp),%eax
  404068:	c1 e0 03             	shl    $0x3,%eax
  40406b:	03 45 e0             	add    0xffffffe0(%ebp),%eax
  40406e:	8d 14 85 00 00 00 00 	lea    0x0(,%eax,4),%edx
  404075:	01 d0                	add    %edx,%eax
  404077:	29 c1                	sub    %eax,%ecx
  404079:	89 4d e0             	mov    %ecx,0xffffffe0(%ebp)
  40407c:	c1 6d e0 1f          	shrl   $0x1f,0xffffffe0(%ebp)
  404080:	2b 5d e0             	sub    0xffffffe0(%ebp),%ebx
  404083:	89 5d e0             	mov    %ebx,0xffffffe0(%ebp)
  404086:	8b 45 e0             	mov    0xffffffe0(%ebp),%eax
  404089:	89 45 e8             	mov    %eax,0xffffffe8(%ebp)
  40408c:	8b 55 f0             	mov    0xfffffff0(%ebp),%edx
  40408f:	8b 45 e8             	mov    0xffffffe8(%ebp),%eax
  404092:	29 d0                	sub    %edx,%eax
  404094:	89 45 dc             	mov    %eax,0xffffffdc(%ebp)
  404097:	c1 65 dc 03          	shll   $0x3,0xffffffdc(%ebp)
  40409b:	01 45 dc             	add    %eax,0xffffffdc(%ebp)
  40409e:	c1 65 dc 03          	shll   $0x3,0xffffffdc(%ebp)
  4040a2:	01 45 dc             	add    %eax,0xffffffdc(%ebp)
  4040a5:	8b 45 dc             	mov    0xffffffdc(%ebp),%eax
  4040a8:	c1 e0 02             	shl    $0x2,%eax
  4040ab:	01 45 dc             	add    %eax,0xffffffdc(%ebp)
  4040ae:	8b 55 e8             	mov    0xffffffe8(%ebp),%edx
  4040b1:	4a                   	dec    %edx
  4040b2:	89 55 d8             	mov    %edx,0xffffffd8(%ebp)
  4040b5:	8b 45 d8             	mov    0xffffffd8(%ebp),%eax
  4040b8:	89 45 d4             	mov    %eax,0xffffffd4(%ebp)
  4040bb:	83 7d d4 00          	cmpl   $0x0,0xffffffd4(%ebp)
  4040bf:	79 04                	jns    4040c5 <___offtime+0x288>
  4040c1:	83 45 d4 03          	addl   $0x3,0xffffffd4(%ebp)
  4040c5:	8b 45 d4             	mov    0xffffffd4(%ebp),%eax
  4040c8:	c1 f8 02             	sar    $0x2,%eax
  4040cb:	89 45 d8             	mov    %eax,0xffffffd8(%ebp)
  4040ce:	8b 55 e8             	mov    0xffffffe8(%ebp),%edx
  4040d1:	4a                   	dec    %edx
  4040d2:	89 55 cc             	mov    %edx,0xffffffcc(%ebp)
  4040d5:	c7 45 8c 1f 85 eb 51 	movl   $0x51eb851f,0xffffff8c(%ebp)
  4040dc:	8b 45 cc             	mov    0xffffffcc(%ebp),%eax
  4040df:	f7 6d 8c             	imull  0xffffff8c(%ebp)
  4040e2:	c1 fa 05             	sar    $0x5,%edx
  4040e5:	8b 45 cc             	mov    0xffffffcc(%ebp),%eax
  4040e8:	c1 f8 1f             	sar    $0x1f,%eax
  4040eb:	29 c2                	sub    %eax,%edx
  4040ed:	89 d0                	mov    %edx,%eax
  4040ef:	89 45 cc             	mov    %eax,0xffffffcc(%ebp)
  4040f2:	8b 55 e8             	mov    0xffffffe8(%ebp),%edx
  4040f5:	4a                   	dec    %edx
  4040f6:	89 55 d0             	mov    %edx,0xffffffd0(%ebp)
  4040f9:	c7 45 8c 1f 85 eb 51 	movl   $0x51eb851f,0xffffff8c(%ebp)
  404100:	8b 45 d0             	mov    0xffffffd0(%ebp),%eax
  404103:	f7 6d 8c             	imull  0xffffff8c(%ebp)
  404106:	c1 fa 05             	sar    $0x5,%edx
  404109:	8b 45 d0             	mov    0xffffffd0(%ebp),%eax
  40410c:	c1 f8 1f             	sar    $0x1f,%eax
  40410f:	29 c2                	sub    %eax,%edx
  404111:	89 d0                	mov    %edx,%eax
  404113:	c1 e0 02             	shl    $0x2,%eax
  404116:	01 d0                	add    %edx,%eax
  404118:	8d 14 85 00 00 00 00 	lea    0x0(,%eax,4),%edx
  40411f:	01 d0                	add    %edx,%eax
  404121:	c1 e0 02             	shl    $0x2,%eax
  404124:	8b 55 d0             	mov    0xffffffd0(%ebp),%edx
  404127:	29 c2                	sub    %eax,%edx
  404129:	89 d0                	mov    %edx,%eax
  40412b:	c1 e8 1f             	shr    $0x1f,%eax
  40412e:	89 45 d0             	mov    %eax,0xffffffd0(%ebp)
  404131:	8b 45 cc             	mov    0xffffffcc(%ebp),%eax
  404134:	2b 45 d0             	sub    0xffffffd0(%ebp),%eax
  404137:	89 45 d0             	mov    %eax,0xffffffd0(%ebp)
  40413a:	8b 55 e8             	mov    0xffffffe8(%ebp),%edx
  40413d:	4a                   	dec    %edx
  40413e:	89 55 c4             	mov    %edx,0xffffffc4(%ebp)
  404141:	c7 45 8c 1f 85 eb 51 	movl   $0x51eb851f,0xffffff8c(%ebp)
  404148:	8b 45 c4             	mov    0xffffffc4(%ebp),%eax
  40414b:	f7 6d 8c             	imull  0xffffff8c(%ebp)
  40414e:	c1 fa 07             	sar    $0x7,%edx
  404151:	8b 45 c4             	mov    0xffffffc4(%ebp),%eax
  404154:	c1 f8 1f             	sar    $0x1f,%eax
  404157:	29 c2                	sub    %eax,%edx
  404159:	89 d0                	mov    %edx,%eax
  40415b:	89 45 c4             	mov    %eax,0xffffffc4(%ebp)
  40415e:	8b 55 e8             	mov    0xffffffe8(%ebp),%edx
  404161:	4a                   	dec    %edx
  404162:	89 55 c8             	mov    %edx,0xffffffc8(%ebp)
  404165:	c7 45 8c 1f 85 eb 51 	movl   $0x51eb851f,0xffffff8c(%ebp)
  40416c:	8b 45 c8             	mov    0xffffffc8(%ebp),%eax
  40416f:	f7 6d 8c             	imull  0xffffff8c(%ebp)
  404172:	c1 fa 07             	sar    $0x7,%edx
  404175:	8b 45 c8             	mov    0xffffffc8(%ebp),%eax
  404178:	c1 f8 1f             	sar    $0x1f,%eax
  40417b:	29 c2                	sub    %eax,%edx
  40417d:	89 d0                	mov    %edx,%eax
  40417f:	c1 e0 02             	shl    $0x2,%eax
  404182:	01 d0                	add    %edx,%eax
  404184:	8d 14 85 00 00 00 00 	lea    0x0(,%eax,4),%edx
  40418b:	01 d0                	add    %edx,%eax
  40418d:	c1 e0 04             	shl    $0x4,%eax
  404190:	8b 55 c8             	mov    0xffffffc8(%ebp),%edx
  404193:	29 c2                	sub    %eax,%edx
  404195:	89 d0                	mov    %edx,%eax
  404197:	c1 e8 1f             	shr    $0x1f,%eax
  40419a:	89 45 c8             	mov    %eax,0xffffffc8(%ebp)
  40419d:	8b 45 c4             	mov    0xffffffc4(%ebp),%eax
  4041a0:	2b 45 c8             	sub    0xffffffc8(%ebp),%eax
  4041a3:	89 45 c8             	mov    %eax,0xffffffc8(%ebp)
  4041a6:	8b 55 e8             	mov    0xffffffe8(%ebp),%edx
  4041a9:	4a                   	dec    %edx
  4041aa:	89 55 c0             	mov    %edx,0xffffffc0(%ebp)
  4041ad:	8b 45 c0             	mov    0xffffffc0(%ebp),%eax
  4041b0:	89 45 bc             	mov    %eax,0xffffffbc(%ebp)
  4041b3:	83 7d bc 00          	cmpl   $0x0,0xffffffbc(%ebp)
  4041b7:	79 04                	jns    4041bd <___offtime+0x380>
  4041b9:	83 45 bc 03          	addl   $0x3,0xffffffbc(%ebp)
  4041bd:	8b 45 bc             	mov    0xffffffbc(%ebp),%eax
  4041c0:	c1 f8 02             	sar    $0x2,%eax
  4041c3:	c1 e0 02             	shl    $0x2,%eax
  4041c6:	8b 55 c0             	mov    0xffffffc0(%ebp),%edx
  4041c9:	29 c2                	sub    %eax,%edx
  4041cb:	89 d0                	mov    %edx,%eax
  4041cd:	c1 e8 1f             	shr    $0x1f,%eax
  4041d0:	89 45 c0             	mov    %eax,0xffffffc0(%ebp)
  4041d3:	8b 45 d8             	mov    0xffffffd8(%ebp),%eax
  4041d6:	2b 45 d0             	sub    0xffffffd0(%ebp),%eax
  4041d9:	03 45 c8             	add    0xffffffc8(%ebp),%eax
  4041dc:	2b 45 c0             	sub    0xffffffc0(%ebp),%eax
  4041df:	89 45 c0             	mov    %eax,0xffffffc0(%ebp)
  4041e2:	8b 45 dc             	mov    0xffffffdc(%ebp),%eax
  4041e5:	03 45 c0             	add    0xffffffc0(%ebp),%eax
  4041e8:	89 45 b8             	mov    %eax,0xffffffb8(%ebp)
  4041eb:	8b 55 f0             	mov    0xfffffff0(%ebp),%edx
  4041ee:	4a                   	dec    %edx
  4041ef:	89 55 b4             	mov    %edx,0xffffffb4(%ebp)
  4041f2:	8b 45 b4             	mov    0xffffffb4(%ebp),%eax
  4041f5:	89 45 b0             	mov    %eax,0xffffffb0(%ebp)
  4041f8:	83 7d b0 00          	cmpl   $0x0,0xffffffb0(%ebp)
  4041fc:	79 04                	jns    404202 <___offtime+0x3c5>
  4041fe:	83 45 b0 03          	addl   $0x3,0xffffffb0(%ebp)
  404202:	8b 45 b0             	mov    0xffffffb0(%ebp),%eax
  404205:	c1 f8 02             	sar    $0x2,%eax
  404208:	89 45 b4             	mov    %eax,0xffffffb4(%ebp)
  40420b:	8b 55 f0             	mov    0xfffffff0(%ebp),%edx
  40420e:	4a                   	dec    %edx
  40420f:	89 55 a8             	mov    %edx,0xffffffa8(%ebp)
  404212:	c7 45 8c 1f 85 eb 51 	movl   $0x51eb851f,0xffffff8c(%ebp)
  404219:	8b 45 a8             	mov    0xffffffa8(%ebp),%eax
  40421c:	f7 6d 8c             	imull  0xffffff8c(%ebp)
  40421f:	c1 fa 05             	sar    $0x5,%edx
  404222:	8b 45 a8             	mov    0xffffffa8(%ebp),%eax
  404225:	c1 f8 1f             	sar    $0x1f,%eax
  404228:	29 c2                	sub    %eax,%edx
  40422a:	89 d0                	mov    %edx,%eax
  40422c:	89 45 a8             	mov    %eax,0xffffffa8(%ebp)
  40422f:	8b 55 f0             	mov    0xfffffff0(%ebp),%edx
  404232:	4a                   	dec    %edx
  404233:	89 55 ac             	mov    %edx,0xffffffac(%ebp)
  404236:	c7 45 8c 1f 85 eb 51 	movl   $0x51eb851f,0xffffff8c(%ebp)
  40423d:	8b 45 ac             	mov    0xffffffac(%ebp),%eax
  404240:	f7 6d 8c             	imull  0xffffff8c(%ebp)
  404243:	c1 fa 05             	sar    $0x5,%edx
  404246:	8b 45 ac             	mov    0xffffffac(%ebp),%eax
  404249:	c1 f8 1f             	sar    $0x1f,%eax
  40424c:	29 c2                	sub    %eax,%edx
  40424e:	89 d0                	mov    %edx,%eax
  404250:	c1 e0 02             	shl    $0x2,%eax
  404253:	01 d0                	add    %edx,%eax
  404255:	8d 14 85 00 00 00 00 	lea    0x0(,%eax,4),%edx
  40425c:	01 d0                	add    %edx,%eax
  40425e:	c1 e0 02             	shl    $0x2,%eax
  404261:	8b 55 ac             	mov    0xffffffac(%ebp),%edx
  404264:	29 c2                	sub    %eax,%edx
  404266:	89 d0                	mov    %edx,%eax
  404268:	c1 e8 1f             	shr    $0x1f,%eax
  40426b:	89 45 ac             	mov    %eax,0xffffffac(%ebp)
  40426e:	8b 45 a8             	mov    0xffffffa8(%ebp),%eax
  404271:	2b 45 ac             	sub    0xffffffac(%ebp),%eax
  404274:	89 45 ac             	mov    %eax,0xffffffac(%ebp)
  404277:	8b 55 f0             	mov    0xfffffff0(%ebp),%edx
  40427a:	4a                   	dec    %edx
  40427b:	89 55 a0             	mov    %edx,0xffffffa0(%ebp)
  40427e:	c7 45 8c 1f 85 eb 51 	movl   $0x51eb851f,0xffffff8c(%ebp)
  404285:	8b 45 a0             	mov    0xffffffa0(%ebp),%eax
  404288:	f7 6d 8c             	imull  0xffffff8c(%ebp)
  40428b:	c1 fa 07             	sar    $0x7,%edx
  40428e:	8b 45 a0             	mov    0xffffffa0(%ebp),%eax
  404291:	c1 f8 1f             	sar    $0x1f,%eax
  404294:	29 c2                	sub    %eax,%edx
  404296:	89 d0                	mov    %edx,%eax
  404298:	89 45 a0             	mov    %eax,0xffffffa0(%ebp)
  40429b:	8b 55 f0             	mov    0xfffffff0(%ebp),%edx
  40429e:	4a                   	dec    %edx
  40429f:	89 55 a4             	mov    %edx,0xffffffa4(%ebp)
  4042a2:	c7 45 8c 1f 85 eb 51 	movl   $0x51eb851f,0xffffff8c(%ebp)
  4042a9:	8b 45 a4             	mov    0xffffffa4(%ebp),%eax
  4042ac:	f7 6d 8c             	imull  0xffffff8c(%ebp)
  4042af:	c1 fa 07             	sar    $0x7,%edx
  4042b2:	8b 45 a4             	mov    0xffffffa4(%ebp),%eax
  4042b5:	c1 f8 1f             	sar    $0x1f,%eax
  4042b8:	29 c2                	sub    %eax,%edx
  4042ba:	89 d0                	mov    %edx,%eax
  4042bc:	c1 e0 02             	shl    $0x2,%eax
  4042bf:	01 d0                	add    %edx,%eax
  4042c1:	8d 14 85 00 00 00 00 	lea    0x0(,%eax,4),%edx
  4042c8:	01 d0                	add    %edx,%eax
  4042ca:	c1 e0 04             	shl    $0x4,%eax
  4042cd:	8b 55 a4             	mov    0xffffffa4(%ebp),%edx
  4042d0:	29 c2                	sub    %eax,%edx
  4042d2:	89 d0                	mov    %edx,%eax
  4042d4:	c1 e8 1f             	shr    $0x1f,%eax
  4042d7:	89 45 a4             	mov    %eax,0xffffffa4(%ebp)
  4042da:	8b 45 a0             	mov    0xffffffa0(%ebp),%eax
  4042dd:	2b 45 a4             	sub    0xffffffa4(%ebp),%eax
  4042e0:	89 45 a4             	mov    %eax,0xffffffa4(%ebp)
  4042e3:	8b 55 f0             	mov    0xfffffff0(%ebp),%edx
  4042e6:	4a                   	dec    %edx
  4042e7:	89 55 9c             	mov    %edx,0xffffff9c(%ebp)
  4042ea:	8b 45 9c             	mov    0xffffff9c(%ebp),%eax
  4042ed:	89 45 98             	mov    %eax,0xffffff98(%ebp)
  4042f0:	83 7d 98 00          	cmpl   $0x0,0xffffff98(%ebp)
  4042f4:	79 04                	jns    4042fa <___offtime+0x4bd>
  4042f6:	83 45 98 03          	addl   $0x3,0xffffff98(%ebp)
  4042fa:	8b 45 98             	mov    0xffffff98(%ebp),%eax
  4042fd:	c1 f8 02             	sar    $0x2,%eax
  404300:	c1 e0 02             	shl    $0x2,%eax
  404303:	8b 55 9c             	mov    0xffffff9c(%ebp),%edx
  404306:	29 c2                	sub    %eax,%edx
  404308:	89 d0                	mov    %edx,%eax
  40430a:	c1 e8 1f             	shr    $0x1f,%eax
  40430d:	89 45 9c             	mov    %eax,0xffffff9c(%ebp)
  404310:	8b 45 b4             	mov    0xffffffb4(%ebp),%eax
  404313:	2b 45 ac             	sub    0xffffffac(%ebp),%eax
  404316:	03 45 a4             	add    0xffffffa4(%ebp),%eax
  404319:	2b 45 9c             	sub    0xffffff9c(%ebp),%eax
  40431c:	89 45 9c             	mov    %eax,0xffffff9c(%ebp)
  40431f:	8b 55 b8             	mov    0xffffffb8(%ebp),%edx
  404322:	2b 55 9c             	sub    0xffffff9c(%ebp),%edx
  404325:	8d 45 f8             	lea    0xfffffff8(%ebp),%eax
  404328:	29 10                	sub    %edx,(%eax)
  40432a:	8b 45 e8             	mov    0xffffffe8(%ebp),%eax
  40432d:	89 45 f0             	mov    %eax,0xfffffff0(%ebp)
  404330:	e9 62 fc ff ff       	jmp    403f97 <___offtime+0x15a>
  404335:	8b 55 10             	mov    0x10(%ebp),%edx
  404338:	8b 45 f0             	mov    0xfffffff0(%ebp),%eax
  40433b:	2d 6c 07 00 00       	sub    $0x76c,%eax
  404340:	89 42 14             	mov    %eax,0x14(%edx)
  404343:	8b 55 10             	mov    0x10(%ebp),%edx
  404346:	8b 45 f0             	mov    0xfffffff0(%ebp),%eax
  404349:	2d 6c 07 00 00       	sub    $0x76c,%eax
  40434e:	39 42 14             	cmp    %eax,0x14(%edx)
  404351:	74 0c                	je     40435f <___offtime+0x522>
  404353:	c7 45 e4 00 00 00 00 	movl   $0x0,0xffffffe4(%ebp)
  40435a:	e9 f5 00 00 00       	jmp    404454 <___offtime+0x617>
  40435f:	8b 55 10             	mov    0x10(%ebp),%edx
  404362:	8b 45 f8             	mov    0xfffffff8(%ebp),%eax
  404365:	89 42 1c             	mov    %eax,0x1c(%edx)
  404368:	8b 45 10             	mov    0x10(%ebp),%eax
  40436b:	89 45 94             	mov    %eax,0xffffff94(%ebp)
  40436e:	c7 45 90 00 00 00 00 	movl   $0x0,0xffffff90(%ebp)
  404375:	8b 45 f0             	mov    0xfffffff0(%ebp),%eax
  404378:	83 e0 03             	and    $0x3,%eax
  40437b:	85 c0                	test   %eax,%eax
  40437d:	75 65                	jne    4043e4 <___offtime+0x5a7>
  40437f:	8b 4d f0             	mov    0xfffffff0(%ebp),%ecx
  404382:	b8 1f 85 eb 51       	mov    $0x51eb851f,%eax
